(dp0
S'stats'
p1
(dp2
S'wiktionary'
p3
(dp4
S'mg'
p5
(dp6
S'wiki'
p7
g3
sS'articles'
p8
I4008286
sS'edits'
p9
I26109647
sS'depth'
p10
S'0.00'
p11
sS'users'
p12
I5918
sS'language'
p13
g5
sS'images'
p14
I3
sS'admins'
p15
I1
sS'pages'
p16
I4067022
sS'activeusers'
p17
I12
ssS'en'
p18
(dp19
g7
g3
sg8
I5365679
sg9
I52586588
sg10
S'0.09'
p20
sg12
I3330097
sg13
g18
sg14
I31
sg15
I104
sg16
I5911507
sg17
I1388
ssss.