(lp0
(S'en'
p1
S'wikipedia'
p2
(dp3
Varticles
p4
I5412686
sVjobs
p5
I74315
sVusers
p6
I31020605
sVadmins
p7
I1259
sVedits
p8
I891559220
sVactiveusers
p9
I132244
sVimages
p10
I845502
sVqueued-massmessages
p11
I0
sVpages
p12
I42185855
stp13
a(S'nl'
p14
g2
(dp15
Varticles
p16
I1902401
sVjobs
p17
I11
sVusers
p18
I841234
sVadmins
p19
I48
sVedits
p20
I50259832
sVactiveusers
p21
I3837
sVimages
p22
I19
sVqueued-massmessages
p23
I0
sVpages
p24
I3805565
stp25
a(S'de'
p26
g2
(dp27
Varticles
p28
I2065270
sVjobs
p29
I253
sVusers
p30
I2652736
sVadmins
p31
I195
sVedits
p32
I170513516
sVactiveusers
p33
I19171
sVimages
p34
I124286
sVqueued-massmessages
p35
I0
sVpages
p36
I5850643
stp37
a(S'fr'
p38
g2
(dp39
Varticles
p40
I1873443
sVjobs
p41
I4743
sVusers
p42
I2803521
sVadmins
p43
I162
sVedits
p44
I140119934
sVactiveusers
p45
I16796
sVimages
p46
I51410
sVqueued-massmessages
p47
I0
sVpages
p48
I8780983
stp49
a(S'sv'
p50
g2
(dp51
Varticles
p52
I3787528
sVjobs
p53
I30571
sVusers
p54
I553148
sVadmins
p55
I67
sVedits
p56
I39826337
sVactiveusers
p57
I2805
sVimages
p58
I0
sVqueued-massmessages
p59
I0
sVpages
p60
I7579004
stp61
a(S'it'
p62
g2
(dp63
Varticles
p64
I1359145
sVjobs
p65
I4
sVusers
p66
I1511684
sVadmins
p67
I111
sVedits
p68
I93357831
sVactiveusers
p69
I8458
sVimages
p70
I136797
sVqueued-massmessages
p71
I0
sVpages
p72
I4797004
stp73
a(S'es'
p74
g2
(dp75
Varticles
p76
I1336263
sVjobs
p77
I678
sVusers
p78
I4628404
sVadmins
p79
I71
sVedits
p80
I99101660
sVactiveusers
p81
I16508
sVimages
p82
I0
sVqueued-massmessages
p83
I0
sVpages
p84
I5880895
stp85
a(S'ru'
p86
g2
(dp87
Varticles
p88
I1396246
sVjobs
p89
I63
sVusers
p90
I2109009
sVadmins
p91
I84
sVedits
p92
I97959399
sVactiveusers
p93
I10726
sVimages
p94
I199173
sVqueued-massmessages
p95
I0
sVpages
p96
I5261864
stp97
a(S'pl'
p98
g2
(dp99
Varticles
p100
I1224331
sVjobs
p101
I173
sVusers
p102
I819987
sVadmins
p103
I105
sVedits
p104
I49355696
sVactiveusers
p105
I4200
sVimages
p106
I6
sVqueued-massmessages
p107
I0
sVpages
p108
I2639734
stp109
a(S'ja'
p110
g2
(dp111
Varticles
p112
I1062047
sVjobs
p113
I2
sVusers
p114
I1212658
sVadmins
p115
I48
sVedits
p116
I65225106
sVactiveusers
p117
I12828
sVimages
p118
I84118
sVqueued-massmessages
p119
I0
sVpages
p120
I3100121
stp121
a(S'vi'
p122
g2
(dp123
Varticles
p124
I1156732
sVjobs
p125
I2
sVusers
p126
I545709
sVadmins
p127
I22
sVedits
p128
I26710500
sVactiveusers
p129
I1485
sVimages
p130
I22986
sVqueued-massmessages
p131
I0
sVpages
p132
I3477006
stp133
a(S'pt'
p134
g2
(dp135
Varticles
p136
I969253
sVjobs
p137
I8
sVusers
p138
I1942084
sVadmins
p139
I72
sVedits
p140
I49889457
sVactiveusers
p141
I6008
sVimages
p142
I43614
sVqueued-massmessages
p143
I0
sVpages
p144
I4374864
stp145
a(S'zh'
p146
g2
(dp147
Varticles
p148
I942721
sVjobs
p149
I14
sVusers
p150
I2378110
sVadmins
p151
I81
sVedits
p152
I45725265
sVactiveusers
p153
I7363
sVimages
p154
I45176
sVqueued-massmessages
p155
I0
sVpages
p156
I4978481
stp157
a(S'war'
p158
g2
(dp159
Varticles
p160
I1262531
sVjobs
p161
I10
sVusers
p162
I32092
sVadmins
p163
I2
sVedits
p164
I6295979
sVactiveusers
p165
I75
sVimages
p166
I46
sVqueued-massmessages
p167
I0
sVpages
p168
I2873618
stp169
a(S'ceb'
p170
g2
(dp171
Varticles
p172
I4525368
sVjobs
p173
I371
sVusers
p174
I35519
sVadmins
p175
I4
sVedits
p176
I14739092
sVactiveusers
p177
I140
sVimages
p178
I0
sVqueued-massmessages
p179
I0
sVpages
p180
I8038369
stp181
a(S'uk'
p182
g2
(dp183
Varticles
p184
I698501
sVjobs
p185
I4
sVusers
p186
I359972
sVadmins
p187
I40
sVedits
p188
I20627990
sVactiveusers
p189
I2861
sVimages
p190
I87382
sVqueued-massmessages
p191
I0
sVpages
p192
I2113446
stp193
a(S'ca'
p194
g2
(dp195
Varticles
p196
I543225
sVjobs
p197
I351
sVusers
p198
I257897
sVadmins
p199
I25
sVedits
p200
I18841320
sVactiveusers
p201
I1506
sVimages
p202
I10087
sVqueued-massmessages
p203
I0
sVpages
p204
I1356324
stp205
a(S'no'
p206
g2
(dp207
Varticles
p208
I468435
sVjobs
p209
I7
sVusers
p210
I391703
sVadmins
p211
I44
sVedits
p212
I17337344
sVactiveusers
p213
I1425
sVimages
p214
I1
sVqueued-massmessages
p215
I0
sVpages
p216
I1213719
stp217
a(S'fi'
p218
g2
(dp219
Varticles
p220
I414763
sVjobs
p221
I4
sVusers
p222
I347313
sVadmins
p223
I38
sVedits
p224
I17340307
sVactiveusers
p225
I1728
sVimages
p226
I48395
sVqueued-massmessages
p227
I0
sVpages
p228
I1120973
stp229
a(S'fa'
p230
g2
(dp231
Varticles
p232
I543841
sVjobs
p233
I6
sVusers
p234
I650029
sVadmins
p235
I32
sVedits
p236
I24550617
sVactiveusers
p237
I3774
sVimages
p238
I44345
sVqueued-massmessages
p239
I0
sVpages
p240
I3533864
stp241
a(S'cs'
p242
g2
(dp243
Varticles
p244
I381638
sVjobs
p245
I1955
sVusers
p246
I372202
sVadmins
p247
I27
sVedits
p248
I14997511
sVactiveusers
p249
I2141
sVimages
p250
I1
sVqueued-massmessages
p251
I0
sVpages
p252
I1016523
stp253
a(S'ko'
p254
g2
(dp255
Varticles
p256
I382936
sVjobs
p257
I3
sVusers
p258
I453944
sVadmins
p259
I32
sVedits
p260
I20642541
sVactiveusers
p261
I2125
sVimages
p262
I13228
sVqueued-massmessages
p263
I0
sVpages
p264
I1474121
stp265
a(S'hu'
p266
g2
(dp267
Varticles
p268
I410756
sVjobs
p269
I5
sVusers
p270
I347866
sVadmins
p271
I32
sVedits
p272
I19428307
sVactiveusers
p273
I1764
sVimages
p274
I24811
sVqueued-massmessages
p275
I0
sVpages
p276
I1183377
stp277
a(S'ar'
p278
g2
(dp279
Varticles
p280
I521760
sVjobs
p281
I149
sVusers
p282
I1334183
sVadmins
p283
I34
sVedits
p284
I26162904
sVactiveusers
p285
I4152
sVimages
p286
I30399
sVqueued-massmessages
p287
I0
sVpages
p288
I2885656
stp289
a(S'ro'
p290
g2
(dp291
Varticles
p292
I376545
sVjobs
p293
I4
sVusers
p294
I403297
sVadmins
p295
I20
sVedits
p296
I11476914
sVactiveusers
p297
I871
sVimages
p298
I36122
sVqueued-massmessages
p299
I0
sVpages
p300
I1732079
stp301
a(S'ms'
p302
g2
(dp303
Varticles
p304
I291727
sVjobs
p305
I0
sVusers
p306
I193262
sVadmins
p307
I18
sVedits
p308
I4360144
sVactiveusers
p309
I412
sVimages
p310
I21661
sVqueued-massmessages
p311
I0
sVpages
p312
I791771
stp313
a(S'sr'
p314
g2
(dp315
Varticles
p316
I350253
sVjobs
p317
I3
sVusers
p318
I200690
sVadmins
p319
I16
sVedits
p320
I13107483
sVactiveusers
p321
I1032
sVimages
p322
I28648
sVqueued-massmessages
p323
I0
sVpages
p324
I1370396
stp325
a(S'tr'
p326
g2
(dp327
Varticles
p328
I292839
sVjobs
p329
I7
sVusers
p330
I965403
sVadmins
p331
I28
sVedits
p332
I19684573
sVactiveusers
p333
I1687
sVimages
p334
I29948
sVqueued-massmessages
p335
I0
sVpages
p336
I1490873
stp337
a(S'id'
p338
g2
(dp339
Varticles
p340
I403189
sVjobs
p341
I0
sVusers
p342
I877516
sVadmins
p343
I32
sVedits
p344
I13949843
sVactiveusers
p345
I2137
sVimages
p346
I62042
sVqueued-massmessages
p347
I0
sVpages
p348
I2164943
stp349
a(S'kk'
p350
g2
(dp351
Varticles
p352
I219302
sVjobs
p353
I0
sVusers
p354
I67296
sVadmins
p355
I16
sVedits
p356
I2654254
sVactiveusers
p357
I238
sVimages
p358
I9445
sVqueued-massmessages
p359
I0
sVpages
p360
I505525
stp361
a(S'sk'
p362
g2
(dp363
Varticles
p364
I217930
sVjobs
p365
I5
sVusers
p366
I141814
sVadmins
p367
I8
sVedits
p368
I6526716
sVactiveusers
p369
I503
sVimages
p370
I0
sVqueued-massmessages
p371
I0
sVpages
p372
I475164
stp373
a(S'eo'
p374
g2
(dp375
Varticles
p376
I239371
sVjobs
p377
I0
sVusers
p378
I131554
sVadmins
p379
I19
sVedits
p380
I6232417
sVactiveusers
p381
I353
sVimages
p382
I4435
sVqueued-massmessages
p383
I0
sVpages
p384
I524154
stp385
a(S'da'
p386
g2
(dp387
Varticles
p388
I226132
sVjobs
p389
I4
sVusers
p390
I295179
sVadmins
p391
I26
sVedits
p392
I9062533
sVactiveusers
p393
I985
sVimages
p394
I1
sVqueued-massmessages
p395
I0
sVpages
p396
I768441
stp397
a(S'lt'
p398
g2
(dp399
Varticles
p400
I181934
sVjobs
p401
I3
sVusers
p402
I109066
sVadmins
p403
I13
sVedits
p404
I5364154
sVactiveusers
p405
I360
sVimages
p406
I19377
sVqueued-massmessages
p407
I0
sVpages
p408
I423649
stp409
a(S'eu'
p410
g2
(dp411
Varticles
p412
I280284
sVjobs
p413
I4
sVusers
p414
I76290
sVadmins
p415
I13
sVedits
p416
I5993377
sVactiveusers
p417
I331
sVimages
p418
I0
sVqueued-massmessages
p419
I0
sVpages
p420
I689419
stp421
a(S'bg'
p422
g2
(dp423
Varticles
p424
I230467
sVjobs
p425
I2
sVusers
p426
I213606
sVadmins
p427
I26
sVedits
p428
I8281336
sVactiveusers
p429
I729
sVimages
p430
I1217
sVqueued-massmessages
p431
I0
sVpages
p432
I512482
stp433
a(S'he'
p434
g2
(dp435
Varticles
p436
I206723
sVjobs
p437
I21
sVusers
p438
I336354
sVadmins
p439
I45
sVedits
p440
I21706924
sVactiveusers
p441
I3024
sVimages
p442
I48939
sVqueued-massmessages
p443
I0
sVpages
p444
I878716
stp445
a(S'hr'
p446
g2
(dp447
Varticles
p448
I174202
sVjobs
p449
I0
sVusers
p450
I179385
sVadmins
p451
I25
sVedits
p452
I5063450
sVactiveusers
p453
I486
sVimages
p454
I14892
sVqueued-massmessages
p455
I0
sVpages
p456
I464074
stp457
a(S'sl'
p458
g2
(dp459
Varticles
p460
I156483
sVjobs
p461
I5
sVusers
p462
I154994
sVadmins
p463
I26
sVedits
p464
I5007451
sVactiveusers
p465
I413
sVimages
p466
I7536
sVqueued-massmessages
p467
I0
sVpages
p468
I368025
stp469
a(S'uz'
p470
g2
(dp471
Varticles
p472
I128868
sVjobs
p473
I0
sVusers
p474
I32103
sVadmins
p475
I8
sVedits
p476
I2658386
sVactiveusers
p477
I81
sVimages
p478
I372
sVqueued-massmessages
p479
I0
sVpages
p480
I616049
stp481
a(S'vo'
p482
g2
(dp483
Varticles
p484
I120493
sVjobs
p485
I0
sVusers
p486
I22451
sVadmins
p487
I2
sVedits
p488
I3311981
sVactiveusers
p489
I27
sVimages
p490
I0
sVqueued-massmessages
p491
I0
sVpages
p492
I249087
stp493
a(S'et'
p494
g2
(dp495
Varticles
p496
I157521
sVjobs
p497
I3
sVusers
p498
I99708
sVadmins
p499
I32
sVedits
p500
I4782161
sVactiveusers
p501
I609
sVimages
p502
I2724
sVqueued-massmessages
p503
I0
sVpages
p504
I399873
stp505
a(S'hi'
p506
g2
(dp507
Varticles
p508
I119497
sVjobs
p509
I0
sVusers
p510
I278526
sVadmins
p511
I8
sVedits
p512
I3591392
sVactiveusers
p513
I686
sVimages
p514
I3044
sVqueued-massmessages
p515
I0
sVpages
p516
I666097
stp517
a(S'nn'
p518
g2
(dp519
Varticles
p520
I133388
sVjobs
p521
I6
sVusers
p522
I79351
sVadmins
p523
I25
sVedits
p524
I2958152
sVactiveusers
p525
I162
sVimages
p526
I16
sVqueued-massmessages
p527
I0
sVpages
p528
I315662
stp529
a(S'gl'
p530
g2
(dp531
Varticles
p532
I139247
sVjobs
p533
I392
sVusers
p534
I76169
sVadmins
p535
I12
sVedits
p536
I4450752
sVactiveusers
p537
I341
sVimages
p538
I9700
sVqueued-massmessages
p539
I0
sVpages
p540
I337528
stp541
a(S'simple'
p542
g2
(dp543
Varticles
p544
I124955
sVjobs
p545
I2
sVusers
p546
I607485
sVadmins
p547
I16
sVedits
p548
I5680598
sVactiveusers
p549
I836
sVimages
p550
I36
sVqueued-massmessages
p551
I0
sVpages
p552
I423578
stp553
a(S'az'
p554
g2
(dp555
Varticles
p556
I118689
sVjobs
p557
I3
sVusers
p558
I131737
sVadmins
p559
I13
sVedits
p560
I4143883
sVactiveusers
p561
I718
sVimages
p562
I18202
sVqueued-massmessages
p563
I0
sVpages
p564
I307564
stp565
a(S'la'
p566
g2
(dp567
Varticles
p568
I126630
sVjobs
p569
I2
sVusers
p570
I94768
sVadmins
p571
I17
sVedits
p572
I3361836
sVactiveusers
p573
I148
sVimages
p574
I0
sVqueued-massmessages
p575
I0
sVpages
p576
I244243
stp577
a(S'el'
p578
g2
(dp579
Varticles
p580
I131282
sVjobs
p581
I4
sVusers
p582
I221149
sVadmins
p583
I21
sVedits
p584
I6613817
sVactiveusers
p585
I1008
sVimages
p586
I15817
sVqueued-massmessages
p587
I0
sVpages
p588
I404477
stp589
a(S'sh'
p590
g2
(dp591
Varticles
p592
I438758
sVjobs
p593
I4
sVusers
p594
I106551
sVadmins
p595
I10
sVedits
p596
I40785750
sVactiveusers
p597
I234
sVimages
p598
I8553
sVqueued-massmessages
p599
I0
sVpages
p600
I4576606
stp601
a(S'oc'
p602
g2
(dp603
Varticles
p604
I83369
sVjobs
p605
I6
sVusers
p606
I29668
sVadmins
p607
I4
sVedits
p608
I2209222
sVactiveusers
p609
I62
sVimages
p610
I872
sVqueued-massmessages
p611
I0
sVpages
p612
I138658
stp613
a(S'th'
p614
g2
(dp615
Varticles
p616
I116957
sVjobs
p617
I4
sVusers
p618
I290456
sVadmins
p619
I15
sVedits
p620
I7374038
sVactiveusers
p621
I1343
sVimages
p622
I32127
sVqueued-massmessages
p623
I0
sVpages
p624
I651055
stp625
a(S'ka'
p626
g2
(dp627
Varticles
p628
I115742
sVjobs
p629
I0
sVusers
p630
I89691
sVadmins
p631
I3
sVedits
p632
I3389792
sVactiveusers
p633
I259
sVimages
p634
I13217
sVqueued-massmessages
p635
I0
sVpages
p636
I321228
stp637
a(S'hy'
p638
g2
(dp639
Varticles
p640
I220567
sVjobs
p641
I0
sVusers
p642
I60898
sVadmins
p643
I10
sVedits
p644
I5177146
sVactiveusers
p645
I565
sVimages
p646
I6256
sVqueued-massmessages
p647
I0
sVpages
p648
I708008
stp649
a(S'mk'
p650
g2
(dp651
Varticles
p652
I89612
sVjobs
p653
I2
sVusers
p654
I66618
sVadmins
p655
I15
sVedits
p656
I4383602
sVactiveusers
p657
I181
sVimages
p658
I7382
sVqueued-massmessages
p659
I0
sVpages
p660
I410828
stp661
a(S'new'
p662
g2
(dp663
Varticles
p664
I72131
sVjobs
p665
I2
sVusers
p666
I16305
sVadmins
p667
I1
sVedits
p668
I842714
sVactiveusers
p669
I16
sVimages
p670
I0
sVqueued-massmessages
p671
I0
sVpages
p672
I196064
stp673
a(S'pms'
p674
g2
(dp675
Varticles
p676
I64116
sVjobs
p677
I0
sVusers
p678
I16416
sVadmins
p679
I9
sVedits
p680
I865515
sVactiveusers
p681
I27
sVimages
p682
I2079
sVqueued-massmessages
p683
I0
sVpages
p684
I97794
stp685
a(S'be'
p686
g2
(dp687
Varticles
p688
I143652
sVjobs
p689
I4
sVusers
p690
I67173
sVadmins
p691
I9
sVedits
p692
I2722005
sVactiveusers
p693
I249
sVimages
p694
I2380
sVqueued-massmessages
p695
I0
sVpages
p696
I435869
stp697
a(S'tl'
p698
g2
(dp699
Varticles
p700
I69846
sVjobs
p701
I4
sVusers
p702
I82274
sVadmins
p703
I13
sVedits
p704
I1641285
sVactiveusers
p705
I98
sVimages
p706
I1959
sVqueued-massmessages
p707
I0
sVpages
p708
I216044
stp709
a(S'ta'
p710
g2
(dp711
Varticles
p712
I102985
sVjobs
p713
I0
sVusers
p714
I114687
sVadmins
p715
I37
sVedits
p716
I2375681
sVactiveusers
p717
I697
sVimages
p718
I7635
sVqueued-massmessages
p719
I0
sVpages
p720
I292561
stp721
a(S'ht'
p722
g2
(dp723
Varticles
p724
I51321
sVjobs
p725
I0
sVusers
p726
I16716
sVadmins
p727
I0
sVedits
p728
I698921
sVactiveusers
p729
I34
sVimages
p730
I0
sVqueued-massmessages
p731
I0
sVpages
p732
I62452
stp733
a(S'te'
p734
g2
(dp735
Varticles
p736
I66964
sVjobs
p737
I0
sVusers
p738
I62057
sVadmins
p739
I16
sVedits
p740
I2100209
sVactiveusers
p741
I127
sVimages
p742
I11087
sVqueued-massmessages
p743
I0
sVpages
p744
I215498
stp745
a(S'tt'
p746
g2
(dp747
Varticles
p748
I71301
sVjobs
p749
I0
sVusers
p750
I22965
sVadmins
p751
I3
sVedits
p752
I2199926
sVactiveusers
p753
I64
sVimages
p754
I3644
sVqueued-massmessages
p755
I0
sVpages
p756
I171945
stp757
a(S'cy'
p758
g2
(dp759
Varticles
p760
I91301
sVjobs
p761
I6
sVusers
p762
I41899
sVadmins
p763
I15
sVedits
p764
I6188953
sVactiveusers
p765
I106
sVimages
p766
I16366
sVqueued-massmessages
p767
I0
sVpages
p768
I201140
stp769
a(S'be-x-old'
p770
g2
(dp771
Varticles
p772
I60859
sVjobs
p773
I0
sVusers
p774
I49841
sVadmins
p775
I5
sVedits
p776
I1976779
sVactiveusers
p777
I113
sVimages
p778
I1516
sVqueued-massmessages
p779
I0
sVpages
p780
I158605
stp781
a(S'lv'
p782
g2
(dp783
Varticles
p784
I77259
sVjobs
p785
I6
sVusers
p786
I65735
sVadmins
p787
I13
sVedits
p788
I2772717
sVactiveusers
p789
I281
sVimages
p790
I19504
sVqueued-massmessages
p791
I0
sVpages
p792
I312322
stp793
a(S'sq'
p794
g2
(dp795
Varticles
p796
I65145
sVjobs
p797
I0
sVusers
p798
I93468
sVadmins
p799
I10
sVedits
p800
I1882608
sVactiveusers
p801
I234
sVimages
p802
I11454
sVqueued-massmessages
p803
I0
sVpages
p804
I179907
stp805
a(S'bs'
p806
g2
(dp807
Varticles
p808
I74686
sVjobs
p809
I2
sVusers
p810
I95900
sVadmins
p811
I10
sVedits
p812
I3043665
sVactiveusers
p813
I159
sVimages
p814
I24212
sVqueued-massmessages
p815
I0
sVpages
p816
I353162
stp817
a(S'br'
p818
g2
(dp819
Varticles
p820
I62119
sVjobs
p821
I0
sVusers
p822
I43020
sVadmins
p823
I8
sVedits
p824
I1826600
sVactiveusers
p825
I77
sVimages
p826
I5403
sVqueued-massmessages
p827
I0
sVpages
p828
I122761
stp829
a(S'jv'
p830
g2
(dp831
Varticles
p832
I50088
sVjobs
p833
I3
sVusers
p834
I30566
sVadmins
p835
I8
sVedits
p836
I1166166
sVactiveusers
p837
I65
sVimages
p838
I5283
sVqueued-massmessages
p839
I0
sVpages
p840
I130566
stp841
a(S'mg'
p842
g2
(dp843
Varticles
p844
I83448
sVjobs
p845
I0
sVusers
p846
I14700
sVadmins
p847
I2
sVedits
p848
I836701
sVactiveusers
p849
I39
sVimages
p850
I4
sVqueued-massmessages
p851
I0
sVpages
p852
I218145
stp853
a(S'mr'
p854
g2
(dp855
Varticles
p856
I47538
sVjobs
p857
I0
sVusers
p858
I75468
sVadmins
p859
I10
sVedits
p860
I1522350
sVactiveusers
p861
I164
sVimages
p862
I19379
sVqueued-massmessages
p863
I0
sVpages
p864
I196037
stp865
a(S'lb'
p866
g2
(dp867
Varticles
p868
I49163
sVjobs
p869
I0
sVusers
p870
I34273
sVadmins
p871
I5
sVedits
p872
I2078668
sVactiveusers
p873
I71
sVimages
p874
I2467
sVqueued-massmessages
p875
I0
sVpages
p876
I108415
stp877
a(S'is'
p878
g2
(dp879
Varticles
p880
I42411
sVjobs
p881
I0
sVusers
p882
I53615
sVadmins
p883
I24
sVedits
p884
I1616127
sVactiveusers
p885
I131
sVimages
p886
I3008
sVqueued-massmessages
p887
I0
sVpages
p888
I114313
stp889
a(S'ml'
p890
g2
(dp891
Varticles
p892
I50277
sVjobs
p893
I0
sVusers
p894
I92796
sVadmins
p895
I19
sVedits
p896
I2564106
sVactiveusers
p897
I324
sVimages
p898
I5251
sVqueued-massmessages
p899
I0
sVpages
p900
I328539
stp901
a(S'my'
p902
g2
(dp903
Varticles
p904
I35784
sVjobs
p905
I0
sVusers
p906
I42969
sVadmins
p907
I5
sVedits
p908
I370475
sVactiveusers
p909
I82
sVimages
p910
I3482
sVqueued-massmessages
p911
I0
sVpages
p912
I70316
stp913
a(S'ba'
p914
g2
(dp915
Varticles
p916
I39057
sVjobs
p917
I0
sVusers
p918
I17546
sVadmins
p919
I7
sVedits
p920
I699247
sVactiveusers
p921
I94
sVimages
p922
I1257
sVqueued-massmessages
p923
I0
sVpages
p924
I111234
stp925
a(S'yo'
p926
g2
(dp927
Varticles
p928
I31558
sVjobs
p929
I0
sVusers
p930
I14972
sVadmins
p931
I1
sVedits
p932
I562547
sVactiveusers
p933
I22
sVimages
p934
I174
sVqueued-massmessages
p935
I0
sVpages
p936
I54246
stp937
a(S'an'
p938
g2
(dp939
Varticles
p940
I32066
sVjobs
p941
I0
sVusers
p942
I43374
sVadmins
p943
I6
sVedits
p944
I1636549
sVactiveusers
p945
I53
sVimages
p946
I1180
sVqueued-massmessages
p947
I0
sVpages
p948
I103424
stp949
a(S'lmo'
p950
g2
(dp951
Varticles
p952
I35186
sVjobs
p953
I0
sVusers
p954
I18952
sVadmins
p955
I6
sVedits
p956
I1102016
sVactiveusers
p957
I40
sVimages
p958
I4434
sVqueued-massmessages
p959
I0
sVpages
p960
I93553
stp961
a(S'fy'
p962
g2
(dp963
Varticles
p964
I37788
sVjobs
p965
I4
sVusers
p966
I25142
sVadmins
p967
I10
sVedits
p968
I887624
sVactiveusers
p969
I68
sVimages
p970
I6117
sVqueued-massmessages
p971
I0
sVpages
p972
I104154
stp973
a(S'af'
p974
g2
(dp975
Varticles
p976
I44921
sVjobs
p977
I0
sVusers
p978
I88109
sVadmins
p979
I13
sVedits
p980
I1606180
sVactiveusers
p981
I169
sVimages
p982
I7636
sVqueued-massmessages
p983
I0
sVpages
p984
I107732
stp985
a(S'bn'
p986
g2
(dp987
Varticles
p988
I50466
sVjobs
p989
I0
sVusers
p990
I147094
sVadmins
p991
I19
sVedits
p992
I2725758
sVactiveusers
p993
I621
sVimages
p994
I4211
sVqueued-massmessages
p995
I0
sVpages
p996
I516412
stp997
a(S'pnb'
p998
g2
(dp999
Varticles
p1000
I44324
sVjobs
p1001
I0
sVusers
p1002
I17575
sVadmins
p1003
I2
sVedits
p1004
I512467
sVactiveusers
p1005
I33
sVimages
p1006
I238
sVqueued-massmessages
p1007
I0
sVpages
p1008
I60691
stp1009
a(S'sw'
p1010
g2
(dp1011
Varticles
p1012
I36019
sVjobs
p1013
I3
sVusers
p1014
I27028
sVadmins
p1015
I9
sVedits
p1016
I1044383
sVactiveusers
p1017
I69
sVimages
p1018
I1940
sVqueued-massmessages
p1019
I0
sVpages
p1020
I85574
stp1021
a(S'bpy'
p1022
g2
(dp1023
Varticles
p1024
I25069
sVjobs
p1025
I0
sVusers
p1026
I16484
sVadmins
p1027
I1
sVedits
p1028
I806276
sVactiveusers
p1029
I24
sVimages
p1030
I49
sVqueued-massmessages
p1031
I0
sVpages
p1032
I57571
stp1033
a(S'zh-yue'
p1034
g2
(dp1035
Varticles
p1036
I54174
sVjobs
p1037
I0
sVusers
p1038
I136759
sVadmins
p1039
I10
sVedits
p1040
I1131078
sVactiveusers
p1041
I240
sVimages
p1042
I1115
sVqueued-massmessages
p1043
I0
sVpages
p1044
I147563
stp1045
a(S'io'
p1046
g2
(dp1047
Varticles
p1048
I27043
sVjobs
p1049
I0
sVusers
p1050
I21082
sVadmins
p1051
I4
sVedits
p1052
I911359
sVactiveusers
p1053
I42
sVimages
p1054
I1
sVqueued-massmessages
p1055
I0
sVpages
p1056
I40730
stp1057
a(S'ky'
p1058
g2
(dp1059
Varticles
p1060
I69094
sVjobs
p1061
I0
sVusers
p1062
I15750
sVadmins
p1063
I4
sVedits
p1064
I275602
sVactiveusers
p1065
I61
sVimages
p1066
I2678
sVqueued-massmessages
p1067
I0
sVpages
p1068
I87534
stp1069
a(S'ur'
p1070
g2
(dp1071
Varticles
p1072
I122549
sVjobs
p1073
I2
sVusers
p1074
I64651
sVadmins
p1075
I14
sVedits
p1076
I5516581
sVactiveusers
p1077
I167
sVimages
p1078
I4570
sVqueued-massmessages
p1079
I0
sVpages
p1080
I652057
stp1081
a(S'ne'
p1082
g2
(dp1083
Varticles
p1084
I30350
sVjobs
p1085
I2
sVusers
p1086
I32468
sVadmins
p1087
I10
sVedits
p1088
I609741
sVactiveusers
p1089
I85
sVimages
p1090
I588
sVqueued-massmessages
p1091
I0
sVpages
p1092
I82791
stp1093
a(S'scn'
p1094
g2
(dp1095
Varticles
p1096
I25380
sVjobs
p1097
I0
sVusers
p1098
I25514
sVadmins
p1099
I7
sVedits
p1100
I755309
sVactiveusers
p1101
I30
sVimages
p1102
I1410
sVqueued-massmessages
p1103
I0
sVpages
p1104
I56641
stp1105
a(S'gu'
p1106
g2
(dp1107
Varticles
p1108
I27178
sVjobs
p1109
I0
sVusers
p1110
I34043
sVadmins
p1111
I4
sVedits
p1112
I490511
sVactiveusers
p1113
I57
sVimages
p1114
I5
sVqueued-massmessages
p1115
I0
sVpages
p1116
I70006
stp1117
a(S'ga'
p1118
g2
(dp1119
Varticles
p1120
I40456
sVjobs
p1121
I0
sVusers
p1122
I29617
sVadmins
p1123
I8
sVedits
p1124
I851102
sVactiveusers
p1125
I59
sVimages
p1126
I1189
sVqueued-massmessages
p1127
I0
sVpages
p1128
I65087
stp1129
a(S'nds'
p1130
g2
(dp1131
Varticles
p1132
I26141
sVjobs
p1133
I0
sVusers
p1134
I29072
sVadmins
p1135
I4
sVedits
p1136
I817395
sVactiveusers
p1137
I47
sVimages
p1138
I0
sVqueued-massmessages
p1139
I0
sVpages
p1140
I70177
stp1141
a(S'ku'
p1142
g2
(dp1143
Varticles
p1144
I22810
sVjobs
p1145
I0
sVusers
p1146
I31342
sVadmins
p1147
I3
sVedits
p1148
I717492
sVactiveusers
p1149
I58
sVimages
p1150
I629
sVqueued-massmessages
p1151
I0
sVpages
p1152
I58245
stp1153
a(S'cv'
p1154
g2
(dp1155
Varticles
p1156
I40144
sVjobs
p1157
I0
sVusers
p1158
I19912
sVadmins
p1159
I2
sVedits
p1160
I623052
sVactiveusers
p1161
I47
sVimages
p1162
I536
sVqueued-massmessages
p1163
I0
sVpages
p1164
I67175
stp1165
a(S'ast'
p1166
g2
(dp1167
Varticles
p1168
I48850
sVjobs
p1169
I2
sVusers
p1170
I36735
sVadmins
p1171
I9
sVedits
p1172
I1045105
sVactiveusers
p1173
I78
sVimages
p1174
I0
sVqueued-massmessages
p1175
I0
sVpages
p1176
I76025
stp1177
a(S'qu'
p1178
g2
(dp1179
Varticles
p1180
I20156
sVjobs
p1181
I0
sVusers
p1182
I17326
sVadmins
p1183
I2
sVedits
p1184
I663959
sVactiveusers
p1185
I27
sVimages
p1186
I0
sVqueued-massmessages
p1187
I0
sVpages
p1188
I52155
stp1189
a(S'su'
p1190
g2
(dp1191
Varticles
p1192
I30363
sVjobs
p1193
I3
sVusers
p1194
I16840
sVadmins
p1195
I8
sVedits
p1196
I532849
sVactiveusers
p1197
I37
sVimages
p1198
I538
sVqueued-massmessages
p1199
I0
sVpages
p1200
I57572
stp1201
a(S'sco'
p1202
g2
(dp1203
Varticles
p1204
I44908
sVjobs
p1205
I0
sVusers
p1206
I38722
sVadmins
p1207
I5
sVedits
p1208
I616313
sVactiveusers
p1209
I72
sVimages
p1210
I1031
sVqueued-massmessages
p1211
I0
sVpages
p1212
I162905
stp1213
a(S'als'
p1214
g2
(dp1215
Varticles
p1216
I22841
sVjobs
p1217
I0
sVusers
p1218
I55173
sVadmins
p1219
I8
sVedits
p1220
I772538
sVactiveusers
p1221
I75
sVimages
p1222
I415
sVqueued-massmessages
p1223
I0
sVpages
p1224
I50813
stp1225
a(S'bug'
p1226
g2
(dp1227
Varticles
p1228
I14120
sVjobs
p1229
I0
sVusers
p1230
I8335
sVadmins
p1231
I0
sVedits
p1232
I198740
sVactiveusers
p1233
I13
sVimages
p1234
I0
sVqueued-massmessages
p1235
I0
sVpages
p1236
I18396
stp1237
a(S'ia'
p1238
g2
(dp1239
Varticles
p1240
I20488
sVjobs
p1241
I0
sVusers
p1242
I26945
sVadmins
p1243
I6
sVedits
p1244
I584272
sVactiveusers
p1245
I34
sVimages
p1246
I0
sVqueued-massmessages
p1247
I0
sVpages
p1248
I32422
stp1249
a(S'nap'
p1250
g2
(dp1251
Varticles
p1252
I14456
sVjobs
p1253
I0
sVusers
p1254
I16520
sVadmins
p1255
I1
sVedits
p1256
I700139
sVactiveusers
p1257
I22
sVimages
p1258
I368
sVqueued-massmessages
p1259
I0
sVpages
p1260
I26251
stp1261
a(S'kn'
p1262
g2
(dp1263
Varticles
p1264
I21898
sVjobs
p1265
I0
sVusers
p1266
I37729
sVadmins
p1267
I4
sVedits
p1268
I697519
sVactiveusers
p1269
I99
sVimages
p1270
I3237
sVqueued-massmessages
p1271
I0
sVpages
p1272
I77287
stp1273
a(S'bat-smg'
p1274
g2
(dp1275
Varticles
p1276
I16065
sVjobs
p1277
I0
sVusers
p1278
I16411
sVadmins
p1279
I4
sVedits
p1280
I357249
sVactiveusers
p1281
I20
sVimages
p1282
I109
sVqueued-massmessages
p1283
I0
sVpages
p1284
I26878
stp1285
a(S'map-bms'
p1286
g2
(dp1287
Varticles
p1288
I13285
sVjobs
p1289
I0
sVusers
p1290
I9067
sVadmins
p1291
I1
sVedits
p1292
I210357
sVactiveusers
p1293
I19
sVimages
p1294
I487
sVqueued-massmessages
p1295
I0
sVpages
p1296
I27316
stp1297
a(S'wa'
p1298
g2
(dp1299
Varticles
p1300
I14492
sVjobs
p1301
I0
sVusers
p1302
I13750
sVadmins
p1303
I1
sVedits
p1304
I332766
sVactiveusers
p1305
I16
sVimages
p1306
I2176
sVqueued-massmessages
p1307
I0
sVpages
p1308
I37328
stp1309
a(S'am'
p1310
g2
(dp1311
Varticles
p1312
I13531
sVjobs
p1313
I0
sVusers
p1314
I22954
sVadmins
p1315
I3
sVedits
p1316
I350716
sVactiveusers
p1317
I24
sVimages
p1318
I1604
sVqueued-massmessages
p1319
I0
sVpages
p1320
I43455
stp1321
a(S'gd'
p1322
g2
(dp1323
Varticles
p1324
I14416
sVjobs
p1325
I0
sVusers
p1326
I15197
sVadmins
p1327
I4
sVedits
p1328
I544079
sVactiveusers
p1329
I41
sVimages
p1330
I348
sVqueued-massmessages
p1331
I0
sVpages
p1332
I30010
stp1333
a(S'ckb'
p1334
g2
(dp1335
Varticles
p1336
I19060
sVjobs
p1337
I0
sVusers
p1338
I26545
sVadmins
p1339
I6
sVedits
p1340
I559325
sVactiveusers
p1341
I107
sVimages
p1342
I696
sVqueued-massmessages
p1343
I0
sVpages
p1344
I108900
stp1345
a(S'hif'
p1346
g2
(dp1347
Varticles
p1348
I9668
sVjobs
p1349
I2
sVusers
p1350
I16625
sVadmins
p1351
I1
sVedits
p1352
I245968
sVactiveusers
p1353
I22
sVimages
p1354
I193
sVqueued-massmessages
p1355
I0
sVpages
p1356
I26636
stp1357
a(S'zh-min-nan'
p1358
g2
(dp1359
Varticles
p1360
I210984
sVjobs
p1361
I0
sVusers
p1362
I28965
sVadmins
p1363
I5
sVedits
p1364
I1691401
sVactiveusers
p1365
I68
sVimages
p1366
I361
sVqueued-massmessages
p1367
I0
sVpages
p1368
I637829
stp1369
a(S'tg'
p1370
g2
(dp1371
Varticles
p1372
I67988
sVjobs
p1373
I0
sVusers
p1374
I17041
sVadmins
p1375
I5
sVedits
p1376
I868200
sVactiveusers
p1377
I65
sVimages
p1378
I325
sVqueued-massmessages
p1379
I0
sVpages
p1380
I138096
stp1381
a(S'arz'
p1382
g2
(dp1383
Varticles
p1384
I16766
sVjobs
p1385
I0
sVusers
p1386
I86791
sVadmins
p1387
I6
sVedits
p1388
I810322
sVactiveusers
p1389
I90
sVimages
p1390
I1460
sVqueued-massmessages
p1391
I0
sVpages
p1392
I138439
stp1393
a(S'mzn'
p1394
g2
(dp1395
Varticles
p1396
I12417
sVjobs
p1397
I0
sVusers
p1398
I13099
sVadmins
p1399
I3
sVedits
p1400
I139060
sVactiveusers
p1401
I25
sVimages
p1402
I212
sVqueued-massmessages
p1403
I0
sVpages
p1404
I26366
stp1405
a(S'yi'
p1406
g2
(dp1407
Varticles
p1408
I13912
sVjobs
p1409
I0
sVusers
p1410
I26400
sVadmins
p1411
I3
sVedits
p1412
I537602
sVactiveusers
p1413
I40
sVimages
p1414
I1061
sVqueued-massmessages
p1415
I0
sVpages
p1416
I38504
stp1417
a(S'vec'
p1418
g2
(dp1419
Varticles
p1420
I10929
sVjobs
p1421
I0
sVusers
p1422
I18110
sVadmins
p1423
I3
sVedits
p1424
I601020
sVactiveusers
p1425
I35
sVimages
p1426
I684
sVqueued-massmessages
p1427
I0
sVpages
p1428
I33466
stp1429
a(S'mn'
p1430
g2
(dp1431
Varticles
p1432
I17165
sVjobs
p1433
I0
sVusers
p1434
I45207
sVadmins
p1435
I5
sVedits
p1436
I527790
sVactiveusers
p1437
I151
sVimages
p1438
I1445
sVqueued-massmessages
p1439
I0
sVpages
p1440
I54308
stp1441
a(S'sah'
p1442
g2
(dp1443
Varticles
p1444
I11331
sVjobs
p1445
I0
sVusers
p1446
I12987
sVadmins
p1447
I3
sVedits
p1448
I355705
sVactiveusers
p1449
I82
sVimages
p1450
I1767
sVqueued-massmessages
p1451
I0
sVpages
p1452
I37759
stp1453
a(S'nah'
p1454
g2
(dp1455
Varticles
p1456
I7114
sVjobs
p1457
I0
sVusers
p1458
I13996
sVadmins
p1459
I3
sVedits
p1460
I444306
sVactiveusers
p1461
I13
sVimages
p1462
I174
sVqueued-massmessages
p1463
I0
sVpages
p1464
I19520
stp1465
a(S'sa'
p1466
g2
(dp1467
Varticles
p1468
I11151
sVjobs
p1469
I0
sVusers
p1470
I19449
sVadmins
p1471
I6
sVedits
p1472
I422183
sVactiveusers
p1473
I32
sVimages
p1474
I433
sVqueued-massmessages
p1475
I0
sVpages
p1476
I48121
stp1477
a(S'roa-tara'
p1478
g2
(dp1479
Varticles
p1480
I9231
sVjobs
p1481
I0
sVusers
p1482
I6795
sVadmins
p1483
I1
sVedits
p1484
I136449
sVactiveusers
p1485
I15
sVimages
p1486
I291
sVqueued-massmessages
p1487
I0
sVpages
p1488
I17050
stp1489
a(S'os'
p1490
g2
(dp1491
Varticles
p1492
I10482
sVjobs
p1493
I0
sVusers
p1494
I15350
sVadmins
p1495
I2
sVedits
p1496
I487595
sVactiveusers
p1497
I23
sVimages
p1498
I199
sVqueued-massmessages
p1499
I0
sVpages
p1500
I40018
stp1501
a(S'si'
p1502
g2
(dp1503
Varticles
p1504
I13355
sVjobs
p1505
I0
sVusers
p1506
I29560
sVadmins
p1507
I2
sVedits
p1508
I406770
sVactiveusers
p1509
I57
sVimages
p1510
I4241
sVqueued-massmessages
p1511
I0
sVpages
p1512
I62213
stp1513
a(S'pam'
p1514
g2
(dp1515
Varticles
p1516
I8528
sVjobs
p1517
I0
sVusers
p1518
I12591
sVadmins
p1519
I2
sVedits
p1520
I277339
sVactiveusers
p1521
I29
sVimages
p1522
I454
sVqueued-massmessages
p1523
I0
sVpages
p1524
I18160
stp1525
a(S'bar'
p1526
g2
(dp1527
Varticles
p1528
I22670
sVjobs
p1529
I0
sVusers
p1530
I36155
sVadmins
p1531
I6
sVedits
p1532
I638457
sVactiveusers
p1533
I55
sVimages
p1534
I1177
sVqueued-massmessages
p1535
I0
sVpages
p1536
I89711
stp1537
a(S'hsb'
p1538
g2
(dp1539
Varticles
p1540
I11595
sVjobs
p1541
I0
sVusers
p1542
I15116
sVadmins
p1543
I3
sVedits
p1544
I359841
sVactiveusers
p1545
I28
sVimages
p1546
I133
sVqueued-massmessages
p1547
I0
sVpages
p1548
I29422
stp1549
a(S'se'
p1550
g2
(dp1551
Varticles
p1552
I7283
sVjobs
p1553
I0
sVusers
p1554
I15577
sVadmins
p1555
I4
sVedits
p1556
I289321
sVactiveusers
p1557
I16
sVimages
p1558
I0
sVqueued-massmessages
p1559
I0
sVpages
p1560
I16961
stp1561
a(S'pa'
p1562
g2
(dp1563
Varticles
p1564
I25853
sVjobs
p1565
I0
sVusers
p1566
I17918
sVadmins
p1567
I8
sVedits
p1568
I383632
sVactiveusers
p1569
I138
sVimages
p1570
I1177
sVqueued-massmessages
p1571
I0
sVpages
p1572
I86884
stp1573
a(S'li'
p1574
g2
(dp1575
Varticles
p1576
I11735
sVjobs
p1577
I0
sVusers
p1578
I16140
sVadmins
p1579
I5
sVedits
p1580
I429927
sVactiveusers
p1581
I22
sVimages
p1582
I624
sVqueued-massmessages
p1583
I0
sVpages
p1584
I54719
stp1585
a(S'mi'
p1586
g2
(dp1587
Varticles
p1588
I7124
sVjobs
p1589
I0
sVusers
p1590
I8256
sVadmins
p1591
I3
sVedits
p1592
I148510
sVactiveusers
p1593
I16
sVimages
p1594
I0
sVqueued-massmessages
p1595
I0
sVpages
p1596
I13337
stp1597
a(S'co'
p1598
g2
(dp1599
Varticles
p1600
I5435
sVjobs
p1601
I0
sVusers
p1602
I12075
sVadmins
p1603
I1
sVedits
p1604
I370137
sVactiveusers
p1605
I29
sVimages
p1606
I0
sVqueued-massmessages
p1607
I0
sVpages
p1608
I13294
stp1609
a(S'fo'
p1610
g2
(dp1611
Varticles
p1612
I12539
sVjobs
p1613
I2
sVusers
p1614
I16224
sVadmins
p1615
I2
sVedits
p1616
I343500
sVactiveusers
p1617
I47
sVimages
p1618
I0
sVqueued-massmessages
p1619
I0
sVpages
p1620
I37491
stp1621
a(S'ilo'
p1622
g2
(dp1623
Varticles
p1624
I10686
sVjobs
p1625
I0
sVusers
p1626
I9610
sVadmins
p1627
I2
sVedits
p1628
I320974
sVactiveusers
p1629
I19
sVimages
p1630
I0
sVqueued-massmessages
p1631
I0
sVpages
p1632
I46073
stp1633
a(S'gan'
p1634
g2
(dp1635
Varticles
p1636
I6388
sVjobs
p1637
I0
sVusers
p1638
I26824
sVadmins
p1639
I2
sVedits
p1640
I410191
sVactiveusers
p1641
I18
sVimages
p1642
I149
sVqueued-massmessages
p1643
I0
sVpages
p1644
I33119
stp1645
a(S'bo'
p1646
g2
(dp1647
Varticles
p1648
I5723
sVjobs
p1649
I0
sVusers
p1650
I15209
sVadmins
p1651
I0
sVedits
p1652
I132807
sVactiveusers
p1653
I20
sVimages
p1654
I0
sVqueued-massmessages
p1655
I0
sVpages
p1656
I15629
stp1657
a(S'glk'
p1658
g2
(dp1659
Varticles
p1660
I6140
sVjobs
p1661
I0
sVusers
p1662
I8923
sVadmins
p1663
I2
sVedits
p1664
I52057
sVactiveusers
p1665
I18
sVimages
p1666
I807
sVqueued-massmessages
p1667
I0
sVpages
p1668
I12500
stp1669
a(S'rue'
p1670
g2
(dp1671
Varticles
p1672
I6041
sVjobs
p1673
I0
sVusers
p1674
I13276
sVadmins
p1675
I0
sVedits
p1676
I111408
sVactiveusers
p1677
I20
sVimages
p1678
I0
sVqueued-massmessages
p1679
I0
sVpages
p1680
I10368
stp1681
a(S'frr'
p1682
g2
(dp1683
Varticles
p1684
I4834
sVjobs
p1685
I0
sVusers
p1686
I9034
sVadmins
p1687
I4
sVedits
p1688
I120184
sVactiveusers
p1689
I20
sVimages
p1690
I702
sVqueued-massmessages
p1691
I0
sVpages
p1692
I16539
stp1693
a(S'bcl'
p1694
g2
(dp1695
Varticles
p1696
I7081
sVjobs
p1697
I0
sVusers
p1698
I10803
sVadmins
p1699
I1
sVedits
p1700
I173485
sVactiveusers
p1701
I28
sVimages
p1702
I905
sVqueued-massmessages
p1703
I0
sVpages
p1704
I11975
stp1705
a(S'min'
p1706
g2
(dp1707
Varticles
p1708
I221980
sVjobs
p1709
I0
sVusers
p1710
I5673
sVadmins
p1711
I3
sVedits
p1712
I1539780
sVactiveusers
p1713
I25
sVimages
p1714
I106
sVqueued-massmessages
p1715
I0
sVpages
p1716
I316637
stp1717
a(S'nds-nl'
p1718
g2
(dp1719
Varticles
p1720
I6726
sVjobs
p1721
I0
sVusers
p1722
I15490
sVadmins
p1723
I6
sVedits
p1724
I316879
sVactiveusers
p1725
I17
sVimages
p1726
I612
sVqueued-massmessages
p1727
I0
sVpages
p1728
I16629
stp1729
a(S'fiu-vro'
p1730
g2
(dp1731
Varticles
p1732
I5465
sVjobs
p1733
I0
sVusers
p1734
I8213
sVadmins
p1735
I2
sVedits
p1736
I178091
sVactiveusers
p1737
I17
sVimages
p1738
I211
sVqueued-massmessages
p1739
I0
sVpages
p1740
I9696
stp1741
a(S'mrj'
p1742
g2
(dp1743
Varticles
p1744
I10169
sVjobs
p1745
I0
sVusers
p1746
I5592
sVadmins
p1747
I0
sVedits
p1748
I91884
sVactiveusers
p1749
I11
sVimages
p1750
I0
sVqueued-massmessages
p1751
I0
sVpages
p1752
I14453
stp1753
a(S'tk'
p1754
g2
(dp1755
Varticles
p1756
I5222
sVjobs
p1757
I0
sVusers
p1758
I13980
sVadmins
p1759
I0
sVedits
p1760
I209121
sVactiveusers
p1761
I25
sVimages
p1762
I311
sVqueued-massmessages
p1763
I0
sVpages
p1764
I12951
stp1765
a(S'ps'
p1766
g2
(dp1767
Varticles
p1768
I8055
sVjobs
p1769
I0
sVusers
p1770
I13838
sVadmins
p1771
I2
sVedits
p1772
I205194
sVactiveusers
p1773
I29
sVimages
p1774
I1417
sVqueued-massmessages
p1775
I0
sVpages
p1776
I24544
stp1777
a(S'vls'
p1778
g2
(dp1779
Varticles
p1780
I6104
sVjobs
p1781
I0
sVusers
p1782
I14335
sVadmins
p1783
I3
sVedits
p1784
I304862
sVactiveusers
p1785
I21
sVimages
p1786
I503
sVqueued-massmessages
p1787
I0
sVpages
p1788
I17902
stp1789
a(S'xmf'
p1790
g2
(dp1791
Varticles
p1792
I10096
sVjobs
p1793
I0
sVusers
p1794
I8441
sVadmins
p1795
I2
sVedits
p1796
I131396
sVactiveusers
p1797
I21
sVimages
p1798
I0
sVqueued-massmessages
p1799
I0
sVpages
p1800
I24945
stp1801
a(S'gv'
p1802
g2
(dp1803
Varticles
p1804
I4960
sVjobs
p1805
I0
sVusers
p1806
I11508
sVadmins
p1807
I2
sVedits
p1808
I307498
sVactiveusers
p1809
I19
sVimages
p1810
I181
sVqueued-massmessages
p1811
I0
sVpages
p1812
I17634
stp1813
a(S'diq'
p1814
g2
(dp1815
Varticles
p1816
I9778
sVjobs
p1817
I0
sVusers
p1818
I15184
sVadmins
p1819
I3
sVedits
p1820
I397007
sVactiveusers
p1821
I43
sVimages
p1822
I215
sVqueued-massmessages
p1823
I0
sVpages
p1824
I26644
stp1825
a(S'or'
p1826
g2
(dp1827
Varticles
p1828
I12616
sVjobs
p1829
I0
sVusers
p1830
I13764
sVadmins
p1831
I4
sVedits
p1832
I272444
sVactiveusers
p1833
I61
sVimages
p1834
I119
sVqueued-massmessages
p1835
I0
sVpages
p1836
I55398
stp1837
a(S'kv'
p1838
g2
(dp1839
Varticles
p1840
I5206
sVjobs
p1841
I0
sVusers
p1842
I8188
sVadmins
p1843
I0
sVedits
p1844
I134944
sVactiveusers
p1845
I24
sVimages
p1846
I0
sVqueued-massmessages
p1847
I0
sVpages
p1848
I11191
stp1849
a(S'pag'
p1850
g2
(dp1851
Varticles
p1852
I2536
sVjobs
p1853
I0
sVusers
p1854
I4691
sVadmins
p1855
I0
sVedits
p1856
I61891
sVactiveusers
p1857
I18
sVimages
p1858
I0
sVqueued-massmessages
p1859
I0
sVpages
p1860
I7163
stp1861
a(S'km'
p1862
g2
(dp1863
Varticles
p1864
I5161
sVjobs
p1865
I0
sVusers
p1866
I20502
sVadmins
p1867
I5
sVedits
p1868
I196394
sVactiveusers
p1869
I45
sVimages
p1870
I1198
sVqueued-massmessages
p1871
I0
sVpages
p1872
I25003
stp1873
a(S'zea'
p1874
g2
(dp1875
Varticles
p1876
I4377
sVjobs
p1877
I0
sVusers
p1878
I7276
sVadmins
p1879
I4
sVedits
p1880
I105994
sVactiveusers
p1881
I14
sVimages
p1882
I1
sVqueued-massmessages
p1883
I0
sVpages
p1884
I8061
stp1885
a(S'mhr'
p1886
g2
(dp1887
Varticles
p1888
I9603
sVjobs
p1889
I0
sVusers
p1890
I7817
sVadmins
p1891
I1
sVedits
p1892
I161497
sVactiveusers
p1893
I32
sVimages
p1894
I0
sVqueued-massmessages
p1895
I0
sVpages
p1896
I21751
stp1897
a(S'dv'
p1898
g2
(dp1899
Varticles
p1900
I2971
sVjobs
p1901
I0
sVusers
p1902
I16474
sVadmins
p1903
I1
sVedits
p1904
I126630
sVactiveusers
p1905
I16
sVimages
p1906
I934
sVqueued-massmessages
p1907
I0
sVpages
p1908
I10909
stp1909
a(S'nrm'
p1910
g2
(dp1911
Varticles
p1912
I3621
sVjobs
p1913
I0
sVusers
p1914
I8081
sVadmins
p1915
I0
sVedits
p1916
I206221
sVactiveusers
p1917
I15
sVimages
p1918
I0
sVqueued-massmessages
p1919
I0
sVpages
p1920
I7988
stp1921
a(S'csb'
p1922
g2
(dp1923
Varticles
p1924
I5150
sVjobs
p1925
I0
sVusers
p1926
I9849
sVadmins
p1927
I2
sVedits
p1928
I178368
sVactiveusers
p1929
I16
sVimages
p1930
I0
sVqueued-massmessages
p1931
I0
sVpages
p1932
I8173
stp1933
a(S'vep'
p1934
g2
(dp1935
Varticles
p1936
I5493
sVjobs
p1937
I0
sVusers
p1938
I7014
sVadmins
p1939
I0
sVedits
p1940
I95431
sVactiveusers
p1941
I24
sVimages
p1942
I0
sVqueued-massmessages
p1943
I0
sVpages
p1944
I14866
stp1945
a(S'rm'
p1946
g2
(dp1947
Varticles
p1948
I3433
sVjobs
p1949
I0
sVusers
p1950
I10620
sVadmins
p1951
I3
sVedits
p1952
I156512
sVactiveusers
p1953
I24
sVimages
p1954
I52
sVqueued-massmessages
p1955
I0
sVpages
p1956
I8562
stp1957
a(S'koi'
p1958
g2
(dp1959
Varticles
p1960
I3447
sVjobs
p1961
I0
sVusers
p1962
I4908
sVadmins
p1963
I0
sVedits
p1964
I56004
sVactiveusers
p1965
I11
sVimages
p1966
I0
sVqueued-massmessages
p1967
I0
sVpages
p1968
I7156
stp1969
a(S'ce'
p1970
g2
(dp1971
Varticles
p1972
I164241
sVjobs
p1973
I0
sVusers
p1974
I14281
sVadmins
p1975
I3
sVedits
p1976
I1729211
sVactiveusers
p1977
I36
sVimages
p1978
I247
sVqueued-massmessages
p1979
I0
sVpages
p1980
I186785
stp1981
a(S'udm'
p1982
g2
(dp1983
Varticles
p1984
I3957
sVjobs
p1985
I0
sVusers
p1986
I8135
sVadmins
p1987
I4
sVedits
p1988
I112377
sVactiveusers
p1989
I17
sVimages
p1990
I9
sVqueued-massmessages
p1991
I0
sVpages
p1992
I9916
stp1993
a(S'lad'
p1994
g2
(dp1995
Varticles
p1996
I4473
sVjobs
p1997
I0
sVusers
p1998
I12085
sVadmins
p1999
I4
sVedits
p2000
I194920
sVactiveusers
p2001
I19
sVimages
p2002
I23
sVqueued-massmessages
p2003
I0
sVpages
p2004
I13513
stp2005
a(S'lij'
p2006
g2
(dp2007
Varticles
p2008
I3257
sVjobs
p2009
I0
sVusers
p2010
I7831
sVadmins
p2011
I2
sVedits
p2012
I167146
sVactiveusers
p2013
I19
sVimages
p2014
I0
sVqueued-massmessages
p2015
I0
sVpages
p2016
I13603
stp2017
a(S'wuu'
p2018
g2
(dp2019
Varticles
p2020
I5843
sVjobs
p2021
I0
sVusers
p2022
I49655
sVadmins
p2023
I3
sVedits
p2024
I244258
sVactiveusers
p2025
I23
sVimages
p2026
I246
sVqueued-massmessages
p2027
I0
sVpages
p2028
I15215
stp2029
a(S'fur'
p2030
g2
(dp2031
Varticles
p2032
I3178
sVjobs
p2033
I0
sVusers
p2034
I8585
sVadmins
p2035
I1
sVedits
p2036
I167913
sVactiveusers
p2037
I20
sVimages
p2038
I319
sVqueued-massmessages
p2039
I0
sVpages
p2040
I6973
stp2041
a(S'zh-classical'
p2042
g2
(dp2043
Varticles
p2044
I6278
sVjobs
p2045
I0
sVusers
p2046
I64210
sVadmins
p2047
I4
sVedits
p2048
I272032
sVactiveusers
p2049
I70
sVimages
p2050
I0
sVqueued-massmessages
p2051
I0
sVpages
p2052
I70656
stp2053
a(S'sc'
p2054
g2
(dp2055
Varticles
p2056
I5464
sVjobs
p2057
I0
sVusers
p2058
I11347
sVadmins
p2059
I2
sVedits
p2060
I155389
sVactiveusers
p2061
I20
sVimages
p2062
I121
sVqueued-massmessages
p2063
I0
sVpages
p2064
I12825
stp2065
a(S'stq'
p2066
g2
(dp2067
Varticles
p2068
I3768
sVjobs
p2069
I0
sVusers
p2070
I8142
sVadmins
p2071
I3
sVedits
p2072
I120733
sVactiveusers
p2073
I13
sVimages
p2074
I442
sVqueued-massmessages
p2075
I0
sVpages
p2076
I9163
stp2077
a(S'ug'
p2078
g2
(dp2079
Varticles
p2080
I3361
sVjobs
p2081
I0
sVusers
p2082
I12252
sVadmins
p2083
I1
sVedits
p2084
I151014
sVactiveusers
p2085
I17
sVimages
p2086
I295
sVqueued-massmessages
p2087
I0
sVpages
p2088
I11912
stp2089
a(S'mt'
p2090
g2
(dp2091
Varticles
p2092
I3194
sVjobs
p2093
I0
sVusers
p2094
I12697
sVadmins
p2095
I3
sVedits
p2096
I261923
sVactiveusers
p2097
I32
sVimages
p2098
I1189
sVqueued-massmessages
p2099
I0
sVpages
p2100
I14881
stp2101
a(S'ay'
p2102
g2
(dp2103
Varticles
p2104
I4064
sVjobs
p2105
I0
sVusers
p2106
I10055
sVadmins
p2107
I0
sVedits
p2108
I84541
sVactiveusers
p2109
I29
sVimages
p2110
I0
sVqueued-massmessages
p2111
I0
sVpages
p2112
I8189
stp2113
a(S'so'
p2114
g2
(dp2115
Varticles
p2116
I4624
sVjobs
p2117
I0
sVusers
p2118
I16586
sVadmins
p2119
I1
sVedits
p2120
I168152
sVactiveusers
p2121
I45
sVimages
p2122
I1
sVqueued-massmessages
p2123
I0
sVpages
p2124
I17275
stp2125
a(S'pi'
p2126
g2
(dp2127
Varticles
p2128
I2518
sVjobs
p2129
I0
sVusers
p2130
I4025
sVadmins
p2131
I0
sVedits
p2132
I101965
sVactiveusers
p2133
I8
sVimages
p2134
I0
sVqueued-massmessages
p2135
I0
sVpages
p2136
I4328
stp2137
a(S'hak'
p2138
g2
(dp2139
Varticles
p2140
I7424
sVjobs
p2141
I0
sVusers
p2142
I18939
sVadmins
p2143
I0
sVedits
p2144
I111260
sVactiveusers
p2145
I20
sVimages
p2146
I0
sVqueued-massmessages
p2147
I0
sVpages
p2148
I14461
stp2149
a(S'bh'
p2150
g2
(dp2151
Varticles
p2152
I9002
sVjobs
p2153
I0
sVusers
p2154
I10411
sVadmins
p2155
I2
sVedits
p2156
I428508
sVactiveusers
p2157
I25
sVimages
p2158
I44
sVqueued-massmessages
p2159
I0
sVpages
p2160
I41165
stp2161
a(S'ksh'
p2162
g2
(dp2163
Varticles
p2164
I2837
sVjobs
p2165
I0
sVusers
p2166
I14888
sVadmins
p2167
I2
sVedits
p2168
I1599435
sVactiveusers
p2169
I18
sVimages
p2170
I0
sVqueued-massmessages
p2171
I0
sVpages
p2172
I10263
stp2173
a(S'nov'
p2174
g2
(dp2175
Varticles
p2176
I1649
sVjobs
p2177
I0
sVusers
p2178
I6448
sVadmins
p2179
I2
sVedits
p2180
I186663
sVactiveusers
p2181
I15
sVimages
p2182
I0
sVqueued-massmessages
p2183
I0
sVpages
p2184
I4099
stp2185
a(S'kw'
p2186
g2
(dp2187
Varticles
p2188
I3771
sVjobs
p2189
I0
sVusers
p2190
I8281
sVadmins
p2191
I0
sVedits
p2192
I177748
sVactiveusers
p2193
I19
sVimages
p2194
I0
sVqueued-massmessages
p2195
I0
sVpages
p2196
I8232
stp2197
a(S'ang'
p2198
g2
(dp2199
Varticles
p2200
I2901
sVjobs
p2201
I0
sVusers
p2202
I84974
sVadmins
p2203
I1
sVedits
p2204
I193094
sVactiveusers
p2205
I38
sVimages
p2206
I301
sVqueued-massmessages
p2207
I0
sVpages
p2208
I14372
stp2209
a(S'gn'
p2210
g2
(dp2211
Varticles
p2212
I3155
sVjobs
p2213
I0
sVusers
p2214
I9617
sVadmins
p2215
I1
sVedits
p2216
I101748
sVactiveusers
p2217
I13
sVimages
p2218
I0
sVqueued-massmessages
p2219
I0
sVpages
p2220
I8405
stp2221
a(S'pcd'
p2222
g2
(dp2223
Varticles
p2224
I3470
sVjobs
p2225
I0
sVusers
p2226
I7184
sVadmins
p2227
I1
sVedits
p2228
I56725
sVactiveusers
p2229
I20
sVimages
p2230
I51
sVqueued-massmessages
p2231
I0
sVpages
p2232
I7704
stp2233
a(S'nv'
p2234
g2
(dp2235
Varticles
p2236
I3463
sVjobs
p2237
I0
sVusers
p2238
I9334
sVadmins
p2239
I2
sVedits
p2240
I165370
sVactiveusers
p2241
I11
sVimages
p2242
I532
sVqueued-massmessages
p2243
I0
sVpages
p2244
I14746
stp2245
a(S'as'
p2246
g2
(dp2247
Varticles
p2248
I4684
sVjobs
p2249
I0
sVusers
p2250
I16227
sVadmins
p2251
I3
sVedits
p2252
I167894
sVactiveusers
p2253
I49
sVimages
p2254
I1376
sVqueued-massmessages
p2255
I0
sVpages
p2256
I38358
stp2257
a(S'ext'
p2258
g2
(dp2259
Varticles
p2260
I2907
sVjobs
p2261
I0
sVusers
p2262
I10359
sVadmins
p2263
I0
sVedits
p2264
I114234
sVactiveusers
p2265
I17
sVimages
p2266
I0
sVqueued-massmessages
p2267
I0
sVpages
p2268
I6259
stp2269
a(S'eml'
p2270
g2
(dp2271
Varticles
p2272
I8810
sVjobs
p2273
I0
sVusers
p2274
I12607
sVadmins
p2275
I2
sVedits
p2276
I119111
sVactiveusers
p2277
I27
sVimages
p2278
I1651
sVqueued-massmessages
p2279
I0
sVpages
p2280
I26907
stp2281
a(S'frp'
p2282
g2
(dp2283
Varticles
p2284
I2616
sVjobs
p2285
I0
sVusers
p2286
I8964
sVadmins
p2287
I2
sVedits
p2288
I195672
sVactiveusers
p2289
I23
sVimages
p2290
I0
sVqueued-massmessages
p2291
I0
sVpages
p2292
I6536
stp2293
a(S'gag'
p2294
g2
(dp2295
Varticles
p2296
I2752
sVjobs
p2297
I0
sVusers
p2298
I7080
sVadmins
p2299
I0
sVedits
p2300
I66524
sVactiveusers
p2301
I15
sVimages
p2302
I0
sVqueued-massmessages
p2303
I0
sVpages
p2304
I6174
stp2305
a(S'ace'
p2306
g2
(dp2307
Varticles
p2308
I4185
sVjobs
p2309
I0
sVusers
p2310
I14176
sVadmins
p2311
I0
sVedits
p2312
I103059
sVactiveusers
p2313
I30
sVimages
p2314
I0
sVqueued-massmessages
p2315
I0
sVpages
p2316
I10279
stp2317
a(S'szl'
p2318
g2
(dp2319
Varticles
p2320
I5748
sVjobs
p2321
I0
sVusers
p2322
I12563
sVadmins
p2323
I2
sVedits
p2324
I240410
sVactiveusers
p2325
I22
sVimages
p2326
I0
sVqueued-massmessages
p2327
I0
sVpages
p2328
I14246
stp2329
a(S'ie'
p2330
g2
(dp2331
Varticles
p2332
I3651
sVjobs
p2333
I0
sVusers
p2334
I9724
sVadmins
p2335
I0
sVedits
p2336
I126545
sVactiveusers
p2337
I25
sVimages
p2338
I0
sVqueued-massmessages
p2339
I0
sVpages
p2340
I6568
stp2341
a(S'ln'
p2342
g2
(dp2343
Varticles
p2344
I2842
sVjobs
p2345
I0
sVusers
p2346
I7090
sVadmins
p2347
I2
sVedits
p2348
I117884
sVactiveusers
p2349
I18
sVimages
p2350
I28
sVqueued-massmessages
p2351
I0
sVpages
p2352
I8437
stp2353
a(S'pfl'
p2354
g2
(dp2355
Varticles
p2356
I2068
sVjobs
p2357
I0
sVusers
p2358
I5983
sVadmins
p2359
I6
sVedits
p2360
I58883
sVactiveusers
p2361
I16
sVimages
p2362
I0
sVqueued-massmessages
p2363
I0
sVpages
p2364
I4749
stp2365
a(S'krc'
p2366
g2
(dp2367
Varticles
p2368
I2017
sVjobs
p2369
I0
sVusers
p2370
I5991
sVadmins
p2371
I1
sVedits
p2372
I109190
sVactiveusers
p2373
I16
sVimages
p2374
I0
sVqueued-massmessages
p2375
I0
sVpages
p2376
I13181
stp2377
a(S'xal'
p2378
g2
(dp2379
Varticles
p2380
I2070
sVjobs
p2381
I0
sVusers
p2382
I6126
sVadmins
p2383
I2
sVedits
p2384
I81896
sVactiveusers
p2385
I14
sVimages
p2386
I0
sVqueued-massmessages
p2387
I0
sVpages
p2388
I9627
stp2389
a(S'haw'
p2390
g2
(dp2391
Varticles
p2392
I2000
sVjobs
p2393
I0
sVusers
p2394
I8609
sVadmins
p2395
I0
sVedits
p2396
I72674
sVactiveusers
p2397
I12
sVimages
p2398
I0
sVqueued-massmessages
p2399
I0
sVpages
p2400
I4674
stp2401
a(S'pdc'
p2402
g2
(dp2403
Varticles
p2404
I1793
sVjobs
p2405
I0
sVusers
p2406
I20224
sVadmins
p2407
I0
sVedits
p2408
I108145
sVactiveusers
p2409
I22
sVimages
p2410
I0
sVqueued-massmessages
p2411
I0
sVpages
p2412
I5404
stp2413
a(S'rw'
p2414
g2
(dp2415
Varticles
p2416
I1805
sVjobs
p2417
I0
sVusers
p2418
I6333
sVadmins
p2419
I0
sVedits
p2420
I78192
sVactiveusers
p2421
I8
sVimages
p2422
I0
sVqueued-massmessages
p2423
I0
sVpages
p2424
I5008
stp2425
a(S'crh'
p2426
g2
(dp2427
Varticles
p2428
I5241
sVjobs
p2429
I0
sVusers
p2430
I10519
sVadmins
p2431
I1
sVedits
p2432
I139395
sVactiveusers
p2433
I27
sVimages
p2434
I0
sVqueued-massmessages
p2435
I0
sVpages
p2436
I18444
stp2437
a(S'dsb'
p2438
g2
(dp2439
Varticles
p2440
I3083
sVjobs
p2441
I0
sVusers
p2442
I11523
sVadmins
p2443
I2
sVedits
p2444
I139435
sVactiveusers
p2445
I24
sVimages
p2446
I0
sVqueued-massmessages
p2447
I0
sVpages
p2448
I10123
stp2449
a(S'to'
p2450
g2
(dp2451
Varticles
p2452
I1688
sVjobs
p2453
I0
sVusers
p2454
I5197
sVadmins
p2455
I1
sVedits
p2456
I36941
sVactiveusers
p2457
I12
sVimages
p2458
I0
sVqueued-massmessages
p2459
I0
sVpages
p2460
I4927
stp2461
a(S'lez'
p2462
g2
(dp2463
Varticles
p2464
I3802
sVjobs
p2465
I0
sVusers
p2466
I5257
sVadmins
p2467
I4
sVedits
p2468
I68037
sVactiveusers
p2469
I23
sVimages
p2470
I10
sVqueued-massmessages
p2471
I0
sVpages
p2472
I8805
stp2473
a(S'arc'
p2474
g2
(dp2475
Varticles
p2476
I1620
sVjobs
p2477
I0
sVusers
p2478
I12813
sVadmins
p2479
I1
sVedits
p2480
I92734
sVactiveusers
p2481
I14
sVimages
p2482
I0
sVqueued-massmessages
p2483
I0
sVpages
p2484
I5844
stp2485
a(S'kl'
p2486
g2
(dp2487
Varticles
p2488
I1644
sVjobs
p2489
I0
sVusers
p2490
I7886
sVadmins
p2491
I2
sVedits
p2492
I73382
sVactiveusers
p2493
I15
sVimages
p2494
I0
sVqueued-massmessages
p2495
I0
sVpages
p2496
I4774
stp2497
a(S'myv'
p2498
g2
(dp2499
Varticles
p2500
I3793
sVjobs
p2501
I0
sVusers
p2502
I6401
sVadmins
p2503
I3
sVedits
p2504
I91718
sVactiveusers
p2505
I20
sVimages
p2506
I0
sVqueued-massmessages
p2507
I0
sVpages
p2508
I8971
stp2509
a(S'kab'
p2510
g2
(dp2511
Varticles
p2512
I2851
sVjobs
p2513
I0
sVusers
p2514
I6623
sVadmins
p2515
I0
sVedits
p2516
I71053
sVactiveusers
p2517
I15
sVimages
p2518
I0
sVqueued-massmessages
p2519
I0
sVpages
p2520
I10692
stp2521
a(S'sn'
p2522
g2
(dp2523
Varticles
p2524
I2734
sVjobs
p2525
I0
sVusers
p2526
I6904
sVadmins
p2527
I0
sVedits
p2528
I53244
sVactiveusers
p2529
I24
sVimages
p2530
I0
sVqueued-massmessages
p2531
I0
sVpages
p2532
I8102
stp2533
a(S'bjn'
p2534
g2
(dp2535
Varticles
p2536
I1722
sVjobs
p2537
I0
sVusers
p2538
I7277
sVadmins
p2539
I2
sVedits
p2540
I62018
sVactiveusers
p2541
I18
sVimages
p2542
I1
sVqueued-massmessages
p2543
I0
sVpages
p2544
I11838
stp2545
a(S'pap'
p2546
g2
(dp2547
Varticles
p2548
I1777
sVjobs
p2549
I0
sVusers
p2550
I7078
sVadmins
p2551
I1
sVedits
p2552
I79719
sVactiveusers
p2553
I20
sVimages
p2554
I0
sVqueued-massmessages
p2555
I0
sVpages
p2556
I4345
stp2557
a(S'tpi'
p2558
g2
(dp2559
Varticles
p2560
I1356
sVjobs
p2561
I0
sVusers
p2562
I7276
sVadmins
p2563
I0
sVedits
p2564
I81519
sVactiveusers
p2565
I13
sVimages
p2566
I0
sVqueued-massmessages
p2567
I0
sVpages
p2568
I6289
stp2569
a(S'lbe'
p2570
g2
(dp2571
Varticles
p2572
I1211
sVjobs
p2573
I0
sVusers
p2574
I5306
sVadmins
p2575
I0
sVedits
p2576
I43765
sVactiveusers
p2577
I11
sVimages
p2578
I0
sVqueued-massmessages
p2579
I0
sVpages
p2580
I10383
stp2581
a(S'wo'
p2582
g2
(dp2583
Varticles
p2584
I1152
sVjobs
p2585
I0
sVusers
p2586
I9131
sVadmins
p2587
I2
sVedits
p2588
I102111
sVactiveusers
p2589
I14
sVimages
p2590
I0
sVqueued-massmessages
p2591
I0
sVpages
p2592
I5381
stp2593
a(S'mwl'
p2594
g2
(dp2595
Varticles
p2596
I3204
sVjobs
p2597
I0
sVusers
p2598
I7327
sVadmins
p2599
I1
sVedits
p2600
I90851
sVactiveusers
p2601
I18
sVimages
p2602
I0
sVqueued-massmessages
p2603
I0
sVpages
p2604
I8002
stp2605
a(S'jbo'
p2606
g2
(dp2607
Varticles
p2608
I1198
sVjobs
p2609
I0
sVusers
p2610
I9478
sVadmins
p2611
I2
sVedits
p2612
I107898
sVactiveusers
p2613
I14
sVimages
p2614
I0
sVqueued-massmessages
p2615
I0
sVpages
p2616
I5389
stp2617
a(S'mdf'
p2618
g2
(dp2619
Varticles
p2620
I1166
sVjobs
p2621
I0
sVusers
p2622
I5206
sVadmins
p2623
I2
sVedits
p2624
I50001
sVactiveusers
p2625
I11
sVimages
p2626
I0
sVqueued-massmessages
p2627
I0
sVpages
p2628
I4371
stp2629
a(S'kbd'
p2630
g2
(dp2631
Varticles
p2632
I1579
sVjobs
p2633
I0
sVusers
p2634
I5220
sVadmins
p2635
I1
sVedits
p2636
I42198
sVactiveusers
p2637
I15
sVimages
p2638
I0
sVqueued-massmessages
p2639
I0
sVpages
p2640
I6545
stp2641
a(S'cbk-zam'
p2642
g2
(dp2643
Varticles
p2644
I2981
sVjobs
p2645
I0
sVusers
p2646
I9256
sVadmins
p2647
I1
sVedits
p2648
I109827
sVactiveusers
p2649
I17
sVimages
p2650
I0
sVqueued-massmessages
p2651
I0
sVpages
p2652
I5092
stp2653
a(S'av'
p2654
g2
(dp2655
Varticles
p2656
I2305
sVjobs
p2657
I0
sVusers
p2658
I7859
sVadmins
p2659
I1
sVedits
p2660
I64589
sVactiveusers
p2661
I21
sVimages
p2662
I0
sVqueued-massmessages
p2663
I0
sVpages
p2664
I9261
stp2665
a(S'srn'
p2666
g2
(dp2667
Varticles
p2668
I1057
sVjobs
p2669
I0
sVusers
p2670
I4403
sVadmins
p2671
I0
sVedits
p2672
I41906
sVactiveusers
p2673
I13
sVimages
p2674
I0
sVqueued-massmessages
p2675
I0
sVpages
p2676
I2616
stp2677
a(S'lo'
p2678
g2
(dp2679
Varticles
p2680
I2669
sVjobs
p2681
I0
sVusers
p2682
I8560
sVadmins
p2683
I0
sVedits
p2684
I60965
sVactiveusers
p2685
I25
sVimages
p2686
I0
sVqueued-massmessages
p2687
I0
sVpages
p2688
I8758
stp2689
a(S'ty'
p2690
g2
(dp2691
Varticles
p2692
I1185
sVjobs
p2693
I0
sVusers
p2694
I4618
sVadmins
p2695
I0
sVedits
p2696
I50258
sVactiveusers
p2697
I12
sVimages
p2698
I0
sVqueued-massmessages
p2699
I0
sVpages
p2700
I3517
stp2701
a(S'kg'
p2702
g2
(dp2703
Varticles
p2704
I1174
sVjobs
p2705
I0
sVusers
p2706
I5939
sVadmins
p2707
I1
sVedits
p2708
I42866
sVactiveusers
p2709
I13
sVimages
p2710
I0
sVqueued-massmessages
p2711
I0
sVpages
p2712
I2668
stp2713
a(S'ab'
p2714
g2
(dp2715
Varticles
p2716
I1222
sVjobs
p2717
I0
sVusers
p2718
I10904
sVadmins
p2719
I1
sVedits
p2720
I47634
sVactiveusers
p2721
I20
sVimages
p2722
I0
sVqueued-massmessages
p2723
I0
sVpages
p2724
I5573
stp2725
a(S'tet'
p2726
g2
(dp2727
Varticles
p2728
I1392
sVjobs
p2729
I0
sVusers
p2730
I5459
sVadmins
p2731
I1
sVedits
p2732
I61897
sVactiveusers
p2733
I13
sVimages
p2734
I0
sVqueued-massmessages
p2735
I0
sVpages
p2736
I3393
stp2737
a(S'ltg'
p2738
g2
(dp2739
Varticles
p2740
I800
sVjobs
p2741
I0
sVusers
p2742
I3868
sVadmins
p2743
I0
sVedits
p2744
I32676
sVactiveusers
p2745
I13
sVimages
p2746
I0
sVqueued-massmessages
p2747
I0
sVpages
p2748
I2614
stp2749
a(S'na'
p2750
g2
(dp2751
Varticles
p2752
I1280
sVjobs
p2753
I0
sVusers
p2754
I6118
sVadmins
p2755
I1
sVedits
p2756
I78513
sVactiveusers
p2757
I13
sVimages
p2758
I0
sVqueued-massmessages
p2759
I0
sVpages
p2760
I4944
stp2761
a(S'ig'
p2762
g2
(dp2763
Varticles
p2764
I1335
sVjobs
p2765
I0
sVusers
p2766
I6956
sVadmins
p2767
I1
sVedits
p2768
I62491
sVactiveusers
p2769
I17
sVimages
p2770
I0
sVqueued-massmessages
p2771
I0
sVpages
p2772
I5995
stp2773
a(S'bxr'
p2774
g2
(dp2775
Varticles
p2776
I1920
sVjobs
p2777
I0
sVusers
p2778
I7909
sVadmins
p2779
I0
sVedits
p2780
I50965
sVactiveusers
p2781
I15
sVimages
p2782
I0
sVqueued-massmessages
p2783
I0
sVpages
p2784
I6895
stp2785
a(S'nso'
p2786
g2
(dp2787
Varticles
p2788
I7740
sVjobs
p2789
I0
sVusers
p2790
I2857
sVadmins
p2791
I0
sVedits
p2792
I37155
sVactiveusers
p2793
I8
sVimages
p2794
I0
sVqueued-massmessages
p2795
I0
sVpages
p2796
I9474
stp2797
a(S'za'
p2798
g2
(dp2799
Varticles
p2800
I1166
sVjobs
p2801
I0
sVusers
p2802
I5840
sVadmins
p2803
I0
sVedits
p2804
I38426
sVactiveusers
p2805
I9
sVimages
p2806
I0
sVqueued-massmessages
p2807
I0
sVpages
p2808
I2739
stp2809
a(S'kaa'
p2810
g2
(dp2811
Varticles
p2812
I1887
sVjobs
p2813
I0
sVusers
p2814
I6382
sVadmins
p2815
I1
sVedits
p2816
I44600
sVactiveusers
p2817
I14
sVimages
p2818
I0
sVqueued-massmessages
p2819
I0
sVpages
p2820
I4694
stp2821
a(S'zu'
p2822
g2
(dp2823
Varticles
p2824
I932
sVjobs
p2825
I0
sVusers
p2826
I9324
sVadmins
p2827
I0
sVedits
p2828
I39977
sVactiveusers
p2829
I17
sVimages
p2830
I0
sVqueued-massmessages
p2831
I0
sVpages
p2832
I4281
stp2833
a(S'chy'
p2834
g2
(dp2835
Varticles
p2836
I609
sVjobs
p2837
I0
sVusers
p2838
I6385
sVadmins
p2839
I0
sVedits
p2840
I21674
sVactiveusers
p2841
I18
sVimages
p2842
I0
sVqueued-massmessages
p2843
I0
sVpages
p2844
I2036
stp2845
a(S'rmy'
p2846
g2
(dp2847
Varticles
p2848
I583
sVjobs
p2849
I0
sVusers
p2850
I10987
sVadmins
p2851
I0
sVedits
p2852
I49995
sVactiveusers
p2853
I9
sVimages
p2854
I0
sVqueued-massmessages
p2855
I0
sVpages
p2856
I2358
stp2857
a(S'cu'
p2858
g2
(dp2859
Varticles
p2860
I584
sVjobs
p2861
I2
sVusers
p2862
I15270
sVadmins
p2863
I1
sVedits
p2864
I74276
sVactiveusers
p2865
I13
sVimages
p2866
I0
sVqueued-massmessages
p2867
I0
sVpages
p2868
I4318
stp2869
a(S'tn'
p2870
g2
(dp2871
Varticles
p2872
I627
sVjobs
p2873
I0
sVusers
p2874
I5105
sVadmins
p2875
I1
sVedits
p2876
I22445
sVactiveusers
p2877
I12
sVimages
p2878
I0
sVqueued-massmessages
p2879
I0
sVpages
p2880
I2560
stp2881
a(S'chr'
p2882
g2
(dp2883
Varticles
p2884
I787
sVjobs
p2885
I0
sVusers
p2886
I11133
sVadmins
p2887
I0
sVedits
p2888
I36573
sVactiveusers
p2889
I14
sVimages
p2890
I0
sVqueued-massmessages
p2891
I0
sVpages
p2892
I4300
stp2893
a(S'cdo'
p2894
g2
(dp2895
Varticles
p2896
I7150
sVjobs
p2897
I0
sVusers
p2898
I11551
sVadmins
p2899
I3
sVedits
p2900
I62135
sVactiveusers
p2901
I19
sVimages
p2902
I0
sVqueued-massmessages
p2903
I0
sVpages
p2904
I18979
stp2905
a(S'roa-rup'
p2906
g2
(dp2907
Varticles
p2908
I1211
sVjobs
p2909
I0
sVusers
p2910
I9247
sVadmins
p2911
I0
sVedits
p2912
I258341
sVactiveusers
p2913
I11
sVimages
p2914
I0
sVqueued-massmessages
p2915
I0
sVpages
p2916
I4699
stp2917
a(S'bi'
p2918
g2
(dp2919
Varticles
p2920
I1100
sVjobs
p2921
I0
sVusers
p2922
I6423
sVadmins
p2923
I0
sVedits
p2924
I40587
sVactiveusers
p2925
I15
sVimages
p2926
I0
sVqueued-massmessages
p2927
I0
sVpages
p2928
I2686
stp2929
a(S'got'
p2930
g2
(dp2931
Varticles
p2932
I498
sVjobs
p2933
I0
sVusers
p2934
I11011
sVadmins
p2935
I0
sVedits
p2936
I36881
sVactiveusers
p2937
I12
sVimages
p2938
I0
sVqueued-massmessages
p2939
I0
sVpages
p2940
I4038
stp2941
a(S'sm'
p2942
g2
(dp2943
Varticles
p2944
I747
sVjobs
p2945
I0
sVusers
p2946
I4645
sVadmins
p2947
I0
sVedits
p2948
I37355
sVactiveusers
p2949
I13
sVimages
p2950
I0
sVqueued-massmessages
p2951
I0
sVpages
p2952
I3579
stp2953
a(S'mo'
p2954
g2
(dp2955
Varticles
p2956
I394
sVjobs
p2957
I0
sVusers
p2958
I2157
sVadmins
p2959
I0
sVedits
p2960
I10273
sVactiveusers
p2961
I0
sVimages
p2962
I17
sVqueued-massmessages
p2963
I0
sVpages
p2964
I2420
stp2965
a(S'bm'
p2966
g2
(dp2967
Varticles
p2968
I428
sVjobs
p2969
I0
sVusers
p2970
I6617
sVadmins
p2971
I1
sVedits
p2972
I36985
sVactiveusers
p2973
I15
sVimages
p2974
I0
sVqueued-massmessages
p2975
I0
sVpages
p2976
I3033
stp2977
a(S'iu'
p2978
g2
(dp2979
Varticles
p2980
I396
sVjobs
p2981
I0
sVusers
p2982
I10542
sVadmins
p2983
I1
sVedits
p2984
I38382
sVactiveusers
p2985
I14
sVimages
p2986
I0
sVqueued-massmessages
p2987
I0
sVpages
p2988
I3768
stp2989
a(S'pih'
p2990
g2
(dp2991
Varticles
p2992
I525
sVjobs
p2993
I0
sVusers
p2994
I6072
sVadmins
p2995
I0
sVedits
p2996
I41573
sVactiveusers
p2997
I16
sVimages
p2998
I0
sVqueued-massmessages
p2999
I0
sVpages
p3000
I2328
stp3001
a(S'pnt'
p3002
g2
(dp3003
Varticles
p3004
I449
sVjobs
p3005
I0
sVusers
p3006
I5911
sVadmins
p3007
I0
sVedits
p3008
I36163
sVactiveusers
p3009
I10
sVimages
p3010
I0
sVqueued-massmessages
p3011
I0
sVpages
p3012
I1849
stp3013
a(S'sd'
p3014
g2
(dp3015
Varticles
p3016
I7858
sVjobs
p3017
I0
sVusers
p3018
I6944
sVadmins
p3019
I1
sVedits
p3020
I94231
sVactiveusers
p3021
I33
sVimages
p3022
I0
sVqueued-massmessages
p3023
I0
sVpages
p3024
I24490
stp3025
a(S'ss'
p3026
g2
(dp3027
Varticles
p3028
I424
sVjobs
p3029
I0
sVusers
p3030
I4645
sVadmins
p3031
I2
sVedits
p3032
I38055
sVactiveusers
p3033
I13
sVimages
p3034
I0
sVqueued-massmessages
p3035
I0
sVpages
p3036
I1976
stp3037
a(S'ki'
p3038
g2
(dp3039
Varticles
p3040
I1341
sVjobs
p3041
I0
sVusers
p3042
I4188
sVadmins
p3043
I0
sVedits
p3044
I19621
sVactiveusers
p3045
I10
sVimages
p3046
I0
sVqueued-massmessages
p3047
I0
sVpages
p3048
I2730
stp3049
a(S'ee'
p3050
g2
(dp3051
Varticles
p3052
I336
sVjobs
p3053
I0
sVusers
p3054
I8240
sVadmins
p3055
I1
sVedits
p3056
I48557
sVactiveusers
p3057
I9
sVimages
p3058
I0
sVqueued-massmessages
p3059
I0
sVpages
p3060
I3448
stp3061
a(S'ha'
p3062
g2
(dp3063
Varticles
p3064
I1426
sVjobs
p3065
I3
sVusers
p3066
I6254
sVadmins
p3067
I0
sVedits
p3068
I34148
sVactiveusers
p3069
I20
sVimages
p3070
I0
sVqueued-massmessages
p3071
I0
sVpages
p3072
I3438
stp3073
a(S'om'
p3074
g2
(dp3075
Varticles
p3076
I725
sVjobs
p3077
I0
sVusers
p3078
I4797
sVadmins
p3079
I0
sVedits
p3080
I25810
sVactiveusers
p3081
I14
sVimages
p3082
I0
sVqueued-massmessages
p3083
I0
sVpages
p3084
I3843
stp3085
a(S'fj'
p3086
g2
(dp3087
Varticles
p3088
I394
sVjobs
p3089
I0
sVusers
p3090
I4929
sVadmins
p3091
I0
sVedits
p3092
I35066
sVactiveusers
p3093
I13
sVimages
p3094
I0
sVqueued-massmessages
p3095
I0
sVpages
p3096
I1844
stp3097
a(S'ti'
p3098
g2
(dp3099
Varticles
p3100
I178
sVjobs
p3101
I0
sVusers
p3102
I4946
sVadmins
p3103
I0
sVedits
p3104
I20740
sVactiveusers
p3105
I11
sVimages
p3106
I0
sVqueued-massmessages
p3107
I0
sVpages
p3108
I1517
stp3109
a(S'tyv'
p3110
g2
(dp3111
Varticles
p3112
I1396
sVjobs
p3113
I0
sVusers
p3114
I3356
sVadmins
p3115
I0
sVedits
p3116
I20676
sVactiveusers
p3117
I10
sVimages
p3118
I0
sVqueued-massmessages
p3119
I0
sVpages
p3120
I3717
stp3121
a(S'ts'
p3122
g2
(dp3123
Varticles
p3124
I398
sVjobs
p3125
I0
sVusers
p3126
I4885
sVadmins
p3127
I1
sVedits
p3128
I30646
sVactiveusers
p3129
I11
sVimages
p3130
I0
sVqueued-massmessages
p3131
I0
sVpages
p3132
I2138
stp3133
a(S'ks'
p3134
g2
(dp3135
Varticles
p3136
I268
sVjobs
p3137
I0
sVusers
p3138
I5466
sVadmins
p3139
I2
sVedits
p3140
I31495
sVactiveusers
p3141
I14
sVimages
p3142
I0
sVqueued-massmessages
p3143
I0
sVpages
p3144
I2506
stp3145
a(S'sg'
p3146
g2
(dp3147
Varticles
p3148
I248
sVjobs
p3149
I0
sVusers
p3150
I3824
sVadmins
p3151
I0
sVedits
p3152
I20627
sVactiveusers
p3153
I13
sVimages
p3154
I0
sVqueued-massmessages
p3155
I0
sVpages
p3156
I1482
stp3157
a(S've'
p3158
g2
(dp3159
Varticles
p3160
I238
sVjobs
p3161
I0
sVusers
p3162
I3912
sVadmins
p3163
I0
sVedits
p3164
I17521
sVactiveusers
p3165
I13
sVimages
p3166
I0
sVqueued-massmessages
p3167
I0
sVpages
p3168
I1529
stp3169
a(S'rn'
p3170
g2
(dp3171
Varticles
p3172
I497
sVjobs
p3173
I0
sVusers
p3174
I4710
sVadmins
p3175
I0
sVedits
p3176
I19950
sVactiveusers
p3177
I8
sVimages
p3178
I0
sVqueued-massmessages
p3179
I0
sVpages
p3180
I1692
stp3181
a(S'st'
p3182
g2
(dp3183
Varticles
p3184
I394
sVjobs
p3185
I0
sVusers
p3186
I5538
sVadmins
p3187
I0
sVedits
p3188
I19610
sVactiveusers
p3189
I12
sVimages
p3190
I0
sVqueued-massmessages
p3191
I0
sVpages
p3192
I2843
stp3193
a(S'cr'
p3194
g2
(dp3195
Varticles
p3196
I126
sVjobs
p3197
I0
sVusers
p3198
I9035
sVadmins
p3199
I1
sVedits
p3200
I29802
sVactiveusers
p3201
I10
sVimages
p3202
I0
sVqueued-massmessages
p3203
I0
sVpages
p3204
I2927
stp3205
a(S'dz'
p3206
g2
(dp3207
Varticles
p3208
I220
sVjobs
p3209
I0
sVusers
p3210
I5619
sVadmins
p3211
I0
sVedits
p3212
I28052
sVactiveusers
p3213
I7
sVimages
p3214
I0
sVqueued-massmessages
p3215
I0
sVpages
p3216
I1654
stp3217
a(S'ak'
p3218
g2
(dp3219
Varticles
p3220
I287
sVjobs
p3221
I0
sVusers
p3222
I6580
sVadmins
p3223
I0
sVedits
p3224
I21079
sVactiveusers
p3225
I17
sVimages
p3226
I0
sVqueued-massmessages
p3227
I0
sVpages
p3228
I1967
stp3229
a(S'tum'
p3230
g2
(dp3231
Varticles
p3232
I566
sVjobs
p3233
I0
sVusers
p3234
I3797
sVadmins
p3235
I0
sVedits
p3236
I24201
sVactiveusers
p3237
I9
sVimages
p3238
I0
sVqueued-massmessages
p3239
I0
sVpages
p3240
I1799
stp3241
a(S'ff'
p3242
g2
(dp3243
Varticles
p3244
I218
sVjobs
p3245
I0
sVusers
p3246
I4758
sVadmins
p3247
I0
sVedits
p3248
I21914
sVactiveusers
p3249
I11
sVimages
p3250
I0
sVqueued-massmessages
p3251
I0
sVpages
p3252
I1666
stp3253
a(S'ik'
p3254
g2
(dp3255
Varticles
p3256
I251
sVjobs
p3257
I0
sVusers
p3258
I4806
sVadmins
p3259
I1
sVedits
p3260
I35082
sVactiveusers
p3261
I8
sVimages
p3262
I0
sVqueued-massmessages
p3263
I0
sVpages
p3264
I2219
stp3265
a(S'lg'
p3266
g2
(dp3267
Varticles
p3268
I1142
sVjobs
p3269
I0
sVusers
p3270
I4024
sVadmins
p3271
I0
sVedits
p3272
I24805
sVactiveusers
p3273
I17
sVimages
p3274
I0
sVqueued-massmessages
p3275
I0
sVpages
p3276
I3881
stp3277
a(S'ny'
p3278
g2
(dp3279
Varticles
p3280
I375
sVjobs
p3281
I0
sVusers
p3282
I4311
sVadmins
p3283
I1
sVedits
p3284
I18136
sVactiveusers
p3285
I8
sVimages
p3286
I0
sVqueued-massmessages
p3287
I0
sVpages
p3288
I1714
stp3289
a(S'ch'
p3290
g2
(dp3291
Varticles
p3292
I422
sVjobs
p3293
I0
sVusers
p3294
I9134
sVadmins
p3295
I0
sVedits
p3296
I18627
sVactiveusers
p3297
I15
sVimages
p3298
I0
sVqueued-massmessages
p3299
I0
sVpages
p3300
I3076
stp3301
a(S'tw'
p3302
g2
(dp3303
Varticles
p3304
I589
sVjobs
p3305
I0
sVusers
p3306
I6759
sVadmins
p3307
I0
sVedits
p3308
I18164
sVactiveusers
p3309
I7
sVimages
p3310
I0
sVqueued-massmessages
p3311
I0
sVpages
p3312
I1756
stp3313
a(S'xh'
p3314
g2
(dp3315
Varticles
p3316
I615
sVjobs
p3317
I0
sVusers
p3318
I6117
sVadmins
p3319
I1
sVedits
p3320
I30049
sVactiveusers
p3321
I17
sVimages
p3322
I0
sVqueued-massmessages
p3323
I0
sVpages
p3324
I2564
stp3325
a(S'ng'
p3326
g2
(dp3327
Varticles
p3328
I8
sVjobs
p3329
I0
sVusers
p3330
I1746
sVadmins
p3331
I0
sVedits
p3332
I6043
sVactiveusers
p3333
I0
sVimages
p3334
I0
sVqueued-massmessages
p3335
I0
sVpages
p3336
I439
stp3337
a(S'ii'
p3338
g2
(dp3339
Varticles
p3340
I3
sVjobs
p3341
I0
sVusers
p3342
I1544
sVadmins
p3343
I0
sVedits
p3344
I11627
sVactiveusers
p3345
I0
sVimages
p3346
I0
sVqueued-massmessages
p3347
I0
sVpages
p3348
I189
stp3349
a(S'cho'
p3350
g2
(dp3351
Varticles
p3352
I6
sVjobs
p3353
I0
sVusers
p3354
I1410
sVadmins
p3355
I0
sVedits
p3356
I4186
sVactiveusers
p3357
I0
sVimages
p3358
I0
sVqueued-massmessages
p3359
I0
sVpages
p3360
I201
stp3361
a(S'mh'
p3362
g2
(dp3363
Varticles
p3364
I4
sVjobs
p3365
I0
sVusers
p3366
I1740
sVadmins
p3367
I0
sVedits
p3368
I4215
sVactiveusers
p3369
I0
sVimages
p3370
I0
sVqueued-massmessages
p3371
I0
sVpages
p3372
I205
stp3373
a(S'aa'
p3374
g2
(dp3375
Varticles
p3376
I1
sVjobs
p3377
I0
sVusers
p3378
I3241
sVadmins
p3379
I0
sVedits
p3380
I2725
sVactiveusers
p3381
I0
sVimages
p3382
I0
sVqueued-massmessages
p3383
I0
sVpages
p3384
I1512
stp3385
a(S'kj'
p3386
g2
(dp3387
Varticles
p3388
I4
sVjobs
p3389
I0
sVusers
p3390
I1138
sVadmins
p3391
I0
sVedits
p3392
I3510
sVactiveusers
p3393
I0
sVimages
p3394
I0
sVqueued-massmessages
p3395
I0
sVpages
p3396
I113
stp3397
a(S'ho'
p3398
g2
(dp3399
Varticles
p3400
I3
sVjobs
p3401
I0
sVusers
p3402
I1276
sVadmins
p3403
I0
sVedits
p3404
I3735
sVactiveusers
p3405
I0
sVimages
p3406
I0
sVqueued-massmessages
p3407
I0
sVpages
p3408
I128
stp3409
a(S'mus'
p3410
g2
(dp3411
Varticles
p3412
I1
sVjobs
p3413
I0
sVusers
p3414
I1627
sVadmins
p3415
I0
sVedits
p3416
I3568
sVactiveusers
p3417
I0
sVimages
p3418
I0
sVqueued-massmessages
p3419
I0
sVpages
p3420
I114
stp3421
a(S'kr'
p3422
g2
(dp3423
Varticles
p3424
I0
sVjobs
p3425
I0
sVusers
p3426
I4402
sVadmins
p3427
I0
sVedits
p3428
I4563
sVactiveusers
p3429
I0
sVimages
p3430
I0
sVqueued-massmessages
p3431
I0
sVpages
p3432
I162
stp3433
a(S'hz'
p3434
g2
(dp3435
Varticles
p3436
I0
sVjobs
p3437
I0
sVusers
p3438
I3079
sVadmins
p3439
I0
sVedits
p3440
I4431
sVactiveusers
p3441
I0
sVimages
p3442
I0
sVqueued-massmessages
p3443
I0
sVpages
p3444
I175
stp3445
a(S'en'
p3446
S'wiktionary'
p3447
(dp3448
Varticles
p3449
I5195757
sVjobs
p3450
I1817632
sVusers
p3451
I3281298
sVadmins
p3452
I99
sVedits
p3453
I50128406
sVactiveusers
p3454
I1381
sVimages
p3455
I29
sVqueued-massmessages
p3456
I0
sVpages
p3457
I5716389
stp3458
a(S'mg'
p3459
g3447
(dp3460
Varticles
p3461
I4001166
sVjobs
p3462
I24
sVusers
p3463
I5579
sVadmins
p3464
I1
sVedits
p3465
I26004329
sVactiveusers
p3466
I18
sVimages
p3467
I3
sVqueued-massmessages
p3468
I0
sVpages
p3469
I4058135
stp3470
a(S'fr'
p3471
g3447
(dp3472
Varticles
p3473
I3136306
sVjobs
p3474
I353
sVusers
p3475
I197690
sVadmins
p3476
I32
sVedits
p3477
I23888541
sVactiveusers
p3478
I408
sVimages
p3479
I2
sVqueued-massmessages
p3480
I0
sVpages
p3481
I3396681
stp3482
a(S'sh'
p3483
g3447
(dp3484
Varticles
p3485
I911538
sVjobs
p3486
I0
sVusers
p3487
I3041
sVadmins
p3488
I5
sVedits
p3489
I1468649
sVactiveusers
p3490
I10
sVimages
p3491
I3
sVqueued-massmessages
p3492
I0
sVpages
p3493
I916332
stp3494
a(S'zh'
p3495
g3447
(dp3496
Varticles
p3497
I834218
sVjobs
p3498
I0
sVusers
p3499
I55025
sVadmins
p3500
I5
sVedits
p3501
I5322511
sVactiveusers
p3502
I73
sVimages
p3503
I199
sVqueued-massmessages
p3504
I0
sVpages
p3505
I1333540
stp3506
a(S'es'
p3507
g3447
(dp3508
Varticles
p3509
I847594
sVjobs
p3510
I2
sVusers
p3511
I80347
sVadmins
p3512
I8
sVedits
p3513
I4717449
sVactiveusers
p3514
I85
sVimages
p3515
I10
sVqueued-massmessages
p3516
I0
sVpages
p3517
I893491
stp3518
a(S'lt'
p3519
g3447
(dp3520
Varticles
p3521
I615719
sVjobs
p3522
I0
sVusers
p3523
I7055
sVadmins
p3524
I3
sVedits
p3525
I1794236
sVactiveusers
p3526
I19
sVimages
p3527
I18
sVqueued-massmessages
p3528
I0
sVpages
p3529
I686916
stp3530
a(S'ru'
p3531
g3447
(dp3532
Varticles
p3533
I836319
sVjobs
p3534
I0
sVusers
p3535
I176846
sVadmins
p3536
I12
sVedits
p3537
I8222511
sVactiveusers
p3538
I170
sVimages
p3539
I301
sVqueued-massmessages
p3540
I0
sVpages
p3541
I1250753
stp3542
a(S'el'
p3543
g3447
(dp3544
Varticles
p3545
I454538
sVjobs
p3546
I20
sVusers
p3547
I25018
sVadmins
p3548
I4
sVedits
p3549
I4163911
sVactiveusers
p3550
I57
sVimages
p3551
I69
sVqueued-massmessages
p3552
I0
sVpages
p3553
I476498
stp3554
a(S'pl'
p3555
g3447
(dp3556
Varticles
p3557
I576991
sVjobs
p3558
I366
sVusers
p3559
I54482
sVadmins
p3560
I14
sVedits
p3561
I6207669
sVactiveusers
p3562
I100
sVimages
p3563
I27
sVqueued-massmessages
p3564
I0
sVpages
p3565
I605973
stp3566
a(S'nl'
p3567
g3447
(dp3568
Varticles
p3569
I611347
sVjobs
p3570
I238
sVusers
p3571
I26570
sVadmins
p3572
I9
sVedits
p3573
I3635067
sVactiveusers
p3574
I48
sVimages
p3575
I6
sVqueued-massmessages
p3576
I0
sVpages
p3577
I648903
stp3578
a(S'sv'
p3579
g3447
(dp3580
Varticles
p3581
I581596
sVjobs
p3582
I0
sVusers
p3583
I30180
sVadmins
p3584
I14
sVedits
p3585
I3014363
sVactiveusers
p3586
I92
sVimages
p3587
I1
sVqueued-massmessages
p3588
I0
sVpages
p3589
I615852
stp3590
a(S'ko'
p3591
g3447
(dp3592
Varticles
p3593
I285923
sVjobs
p3594
I0
sVusers
p3595
I14294
sVadmins
p3596
I0
sVedits
p3597
I3454293
sVactiveusers
p3598
I27
sVimages
p3599
I17
sVqueued-massmessages
p3600
I0
sVpages
p3601
I408282
stp3602
a(S'it'
p3603
g3447
(dp3604
Varticles
p3605
I424632
sVjobs
p3606
I0
sVusers
p3607
I54305
sVadmins
p3608
I7
sVedits
p3609
I3199286
sVactiveusers
p3610
I63
sVimages
p3611
I32
sVqueued-massmessages
p3612
I0
sVpages
p3613
I455286
stp3614
a(S'de'
p3615
g3447
(dp3616
Varticles
p3617
I622293
sVjobs
p3618
I12
sVusers
p3619
I133297
sVadmins
p3620
I18
sVedits
p3621
I5809076
sVactiveusers
p3622
I202
sVimages
p3623
I76
sVqueued-massmessages
p3624
I0
sVpages
p3625
I701801
stp3626
a(S'ku'
p3627
g3447
(dp3628
Varticles
p3629
I502245
sVjobs
p3630
I0
sVusers
p3631
I5230
sVadmins
p3632
I3
sVedits
p3633
I2134843
sVactiveusers
p3634
I25
sVimages
p3635
I15
sVqueued-massmessages
p3636
I0
sVpages
p3637
I512114
stp3638
a(S'tr'
p3639
g3447
(dp3640
Varticles
p3641
I335666
sVjobs
p3642
I0
sVusers
p3643
I37454
sVadmins
p3644
I2
sVedits
p3645
I2249858
sVactiveusers
p3646
I44
sVimages
p3647
I2
sVqueued-massmessages
p3648
I0
sVpages
p3649
I377105
stp3650
a(S'ta'
p3651
g3447
(dp3652
Varticles
p3653
I354477
sVjobs
p3654
I0
sVusers
p3655
I10050
sVadmins
p3656
I8
sVedits
p3657
I1658012
sVactiveusers
p3658
I48
sVimages
p3659
I251
sVqueued-massmessages
p3660
I0
sVpages
p3661
I367276
stp3662
a(S'hu'
p3663
g3447
(dp3664
Varticles
p3665
I334511
sVjobs
p3666
I0
sVusers
p3667
I16306
sVadmins
p3668
I4
sVedits
p3669
I2256842
sVactiveusers
p3670
I29
sVimages
p3671
I1
sVqueued-massmessages
p3672
I0
sVpages
p3673
I385940
stp3674
a(S'fi'
p3675
g3447
(dp3676
Varticles
p3677
I337606
sVjobs
p3678
I0
sVusers
p3679
I17433
sVadmins
p3680
I10
sVedits
p3681
I3358902
sVactiveusers
p3682
I39
sVimages
p3683
I16
sVqueued-massmessages
p3684
I0
sVpages
p3685
I455650
stp3686
a(S'kn'
p3687
g3447
(dp3688
Varticles
p3689
I263141
sVjobs
p3690
I0
sVusers
p3691
I3384
sVadmins
p3692
I0
sVedits
p3693
I633151
sVactiveusers
p3694
I12
sVimages
p3695
I0
sVqueued-massmessages
p3696
I0
sVpages
p3697
I266529
stp3698
a(S'io'
p3699
g3447
(dp3700
Varticles
p3701
I272023
sVjobs
p3702
I0
sVusers
p3703
I5507
sVadmins
p3704
I1
sVedits
p3705
I2569977
sVactiveusers
p3706
I13
sVimages
p3707
I4
sVqueued-massmessages
p3708
I0
sVpages
p3709
I302283
stp3710
a(S'vi'
p3711
g3447
(dp3712
Varticles
p3713
I231696
sVjobs
p3714
I0
sVusers
p3715
I28630
sVadmins
p3716
I4
sVedits
p3717
I2014085
sVactiveusers
p3718
I28
sVimages
p3719
I5
sVqueued-massmessages
p3720
I0
sVpages
p3721
I244569
stp3722
a(S'pt'
p3723
g3447
(dp3724
Varticles
p3725
I232472
sVjobs
p3726
I0
sVusers
p3727
I61825
sVadmins
p3728
I7
sVedits
p3729
I2493609
sVactiveusers
p3730
I58
sVimages
p3731
I0
sVqueued-massmessages
p3732
I0
sVpages
p3733
I333466
stp3734
a(S'chr'
p3735
g3447
(dp3736
Varticles
p3737
I194430
sVjobs
p3738
I0
sVusers
p3739
I4032
sVadmins
p3740
I0
sVedits
p3741
I779247
sVactiveusers
p3742
I12
sVimages
p3743
I2
sVqueued-massmessages
p3744
I0
sVpages
p3745
I195374
stp3746
a(S'no'
p3747
g3447
(dp3748
Varticles
p3749
I140323
sVjobs
p3750
I0
sVusers
p3751
I9455
sVadmins
p3752
I7
sVedits
p3753
I1061325
sVactiveusers
p3754
I25
sVimages
p3755
I10
sVqueued-massmessages
p3756
I0
sVpages
p3757
I152883
stp3758
a(S'ml'
p3759
g3447
(dp3760
Varticles
p3761
I129603
sVjobs
p3762
I0
sVusers
p3763
I4901
sVadmins
p3764
I3
sVedits
p3765
I733437
sVactiveusers
p3766
I9
sVimages
p3767
I4
sVqueued-massmessages
p3768
I0
sVpages
p3769
I137075
stp3770
a(S'id'
p3771
g3447
(dp3772
Varticles
p3773
I128232
sVjobs
p3774
I0
sVusers
p3775
I15239
sVadmins
p3776
I4
sVedits
p3777
I893658
sVactiveusers
p3778
I20
sVimages
p3779
I3
sVqueued-massmessages
p3780
I0
sVpages
p3781
I203194
stp3782
a(S'my'
p3783
g3447
(dp3784
Varticles
p3785
I108844
sVjobs
p3786
I0
sVusers
p3787
I4228
sVadmins
p3788
I1
sVedits
p3789
I771418
sVactiveusers
p3790
I9
sVimages
p3791
I2
sVqueued-massmessages
p3792
I0
sVpages
p3793
I124751
stp3794
a(S'ja'
p3795
g3447
(dp3796
Varticles
p3797
I173513
sVjobs
p3798
I0
sVusers
p3799
I48343
sVadmins
p3800
I5
sVedits
p3801
I1006786
sVactiveusers
p3802
I49
sVimages
p3803
I37
sVqueued-massmessages
p3804
I0
sVpages
p3805
I203461
stp3806
a(S'li'
p3807
g3447
(dp3808
Varticles
p3809
I114459
sVjobs
p3810
I0
sVusers
p3811
I3112
sVadmins
p3812
I3
sVedits
p3813
I622613
sVactiveusers
p3814
I6
sVimages
p3815
I13
sVqueued-massmessages
p3816
I0
sVpages
p3817
I120375
stp3818
a(S'ro'
p3819
g3447
(dp3820
Varticles
p3821
I143238
sVjobs
p3822
I3
sVusers
p3823
I12218
sVadmins
p3824
I3
sVedits
p3825
I952083
sVactiveusers
p3826
I16
sVimages
p3827
I12
sVqueued-massmessages
p3828
I0
sVpages
p3829
I165227
stp3830
a(S'et'
p3831
g3447
(dp3832
Varticles
p3833
I121042
sVjobs
p3834
I0
sVusers
p3835
I5891
sVadmins
p3836
I5
sVedits
p3837
I1029923
sVactiveusers
p3838
I15
sVimages
p3839
I2
sVqueued-massmessages
p3840
I0
sVpages
p3841
I140138
stp3842
a(S'te'
p3843
g3447
(dp3844
Varticles
p3845
I105959
sVjobs
p3846
I0
sVusers
p3847
I3513
sVadmins
p3848
I4
sVedits
p3849
I968911
sVactiveusers
p3850
I12
sVimages
p3851
I931
sVqueued-massmessages
p3852
I0
sVpages
p3853
I122173
stp3854
a(S'jv'
p3855
g3447
(dp3856
Varticles
p3857
I60710
sVjobs
p3858
I0
sVusers
p3859
I1896
sVadmins
p3860
I0
sVedits
p3861
I89342
sVactiveusers
p3862
I8
sVimages
p3863
I1
sVqueued-massmessages
p3864
I0
sVpages
p3865
I62266
stp3866
a(S'fa'
p3867
g3447
(dp3868
Varticles
p3869
I97226
sVjobs
p3870
I0
sVusers
p3871
I14797
sVadmins
p3872
I3
sVedits
p3873
I954522
sVactiveusers
p3874
I35
sVimages
p3875
I8
sVqueued-massmessages
p3876
I0
sVpages
p3877
I152210
stp3878
a(S'ca'
p3879
g3447
(dp3880
Varticles
p3881
I266894
sVjobs
p3882
I0
sVusers
p3883
I9170
sVadmins
p3884
I2
sVedits
p3885
I1100946
sVactiveusers
p3886
I25
sVimages
p3887
I4
sVqueued-massmessages
p3888
I0
sVpages
p3889
I275429
stp3890
a(S'cs'
p3891
g3447
(dp3892
Varticles
p3893
I89413
sVjobs
p3894
I0
sVusers
p3895
I23724
sVadmins
p3896
I2
sVedits
p3897
I961166
sVactiveusers
p3898
I63
sVimages
p3899
I1
sVqueued-massmessages
p3900
I0
sVpages
p3901
I113267
stp3902
a(S'ar'
p3903
g3447
(dp3904
Varticles
p3905
I64403
sVjobs
p3906
I0
sVusers
p3907
I20204
sVadmins
p3908
I2
sVedits
p3909
I726227
sVactiveusers
p3910
I34
sVimages
p3911
I1
sVqueued-massmessages
p3912
I0
sVpages
p3913
I95759
stp3914
a(S'eu'
p3915
g3447
(dp3916
Varticles
p3917
I53841
sVjobs
p3918
I0
sVusers
p3919
I3221
sVadmins
p3920
I2
sVedits
p3921
I406197
sVactiveusers
p3922
I16
sVimages
p3923
I3
sVqueued-massmessages
p3924
I0
sVpages
p3925
I62048
stp3926
a(S'gl'
p3927
g3447
(dp3928
Varticles
p3929
I49821
sVjobs
p3930
I0
sVusers
p3931
I4068
sVadmins
p3932
I2
sVedits
p3933
I617660
sVactiveusers
p3934
I10
sVimages
p3935
I74
sVqueued-massmessages
p3936
I0
sVpages
p3937
I61656
stp3938
a(S'lo'
p3939
g3447
(dp3940
Varticles
p3941
I37649
sVjobs
p3942
I0
sVusers
p3943
I2616
sVadmins
p3944
I0
sVedits
p3945
I463030
sVactiveusers
p3946
I6
sVimages
p3947
I2
sVqueued-massmessages
p3948
I0
sVpages
p3949
I62231
stp3950
a(S'uk'
p3951
g3447
(dp3952
Varticles
p3953
I36213
sVjobs
p3954
I0
sVusers
p3955
I13778
sVadmins
p3956
I3
sVedits
p3957
I240490
sVactiveusers
p3958
I15
sVimages
p3959
I11
sVqueued-massmessages
p3960
I0
sVpages
p3961
I45338
stp3962
a(S'hy'
p3963
g3447
(dp3964
Varticles
p3965
I200156
sVjobs
p3966
I0
sVusers
p3967
I4658
sVadmins
p3968
I1
sVedits
p3969
I1170950
sVactiveusers
p3970
I139
sVimages
p3971
I16
sVqueued-massmessages
p3972
I0
sVpages
p3973
I207142
stp3974
a(S'br'
p3975
g3447
(dp3976
Varticles
p3977
I36717
sVjobs
p3978
I0
sVusers
p3979
I2973
sVadmins
p3980
I0
sVedits
p3981
I234378
sVactiveusers
p3982
I8
sVimages
p3983
I38
sVqueued-massmessages
p3984
I0
sVpages
p3985
I44737
stp3986
a(S'fj'
p3987
g3447
(dp3988
Varticles
p3989
I31263
sVjobs
p3990
I0
sVusers
p3991
I2202
sVadmins
p3992
I0
sVedits
p3993
I178744
sVactiveusers
p3994
I7
sVimages
p3995
I0
sVqueued-massmessages
p3996
I0
sVpages
p3997
I32069
stp3998
a(S'eo'
p3999
g3447
(dp4000
Varticles
p4001
I95644
sVjobs
p4002
I0
sVusers
p4003
I4967
sVadmins
p4004
I3
sVedits
p4005
I497866
sVactiveusers
p4006
I21
sVimages
p4007
I27
sVqueued-massmessages
p4008
I0
sVpages
p4009
I112212
stp4010
a(S'bg'
p4011
g3447
(dp4012
Varticles
p4013
I27645
sVjobs
p4014
I0
sVusers
p4015
I12678
sVadmins
p4016
I3
sVedits
p4017
I1155915
sVactiveusers
p4018
I19
sVimages
p4019
I21
sVqueued-massmessages
p4020
I0
sVpages
p4021
I864316
stp4022
a(S'th'
p4023
g3447
(dp4024
Varticles
p4025
I136321
sVjobs
p4026
I3
sVusers
p4027
I6318
sVadmins
p4028
I3
sVedits
p4029
I895810
sVactiveusers
p4030
I23
sVimages
p4031
I9
sVqueued-massmessages
p4032
I0
sVpages
p4033
I161197
stp4034
a(S'hr'
p4035
g3447
(dp4036
Varticles
p4037
I32640
sVjobs
p4038
I0
sVusers
p4039
I5183
sVadmins
p4040
I4
sVedits
p4041
I235157
sVactiveusers
p4042
I14
sVimages
p4043
I5
sVqueued-massmessages
p4044
I0
sVpages
p4045
I41295
stp4046
a(S'ps'
p4047
g3447
(dp4048
Varticles
p4049
I25512
sVjobs
p4050
I0
sVusers
p4051
I1695
sVadmins
p4052
I1
sVedits
p4053
I82448
sVactiveusers
p4054
I6
sVimages
p4055
I2
sVqueued-massmessages
p4056
I0
sVpages
p4057
I28570
stp4058
a(S'oc'
p4059
g3447
(dp4060
Varticles
p4061
I33448
sVjobs
p4062
I0
sVusers
p4063
I2821
sVadmins
p4064
I2
sVedits
p4065
I277089
sVactiveusers
p4066
I16
sVimages
p4067
I2
sVqueued-massmessages
p4068
I0
sVpages
p4069
I43766
stp4070
a(S'uz'
p4071
g3447
(dp4072
Varticles
p4073
I116264
sVjobs
p4074
I0
sVusers
p4075
I2356
sVadmins
p4076
I0
sVedits
p4077
I565647
sVactiveusers
p4078
I13
sVimages
p4079
I0
sVqueued-massmessages
p4080
I0
sVpages
p4081
I153019
stp4082
a(S'is'
p4083
g3447
(dp4084
Varticles
p4085
I21981
sVjobs
p4086
I0
sVusers
p4087
I4918
sVadmins
p4088
I3
sVedits
p4089
I248790
sVactiveusers
p4090
I16
sVimages
p4091
I4
sVqueued-massmessages
p4092
I0
sVpages
p4093
I27007
stp4094
a(S'az'
p4095
g3447
(dp4096
Varticles
p4097
I50559
sVjobs
p4098
I0
sVusers
p4099
I4286
sVadmins
p4100
I2
sVedits
p4101
I349545
sVactiveusers
p4102
I15
sVimages
p4103
I-1
sVqueued-massmessages
p4104
I0
sVpages
p4105
I57796
stp4106
a(S'vo'
p4107
g3447
(dp4108
Varticles
p4109
I22828
sVjobs
p4110
I0
sVusers
p4111
I2130
sVadmins
p4112
I0
sVedits
p4113
I203164
sVactiveusers
p4114
I7
sVimages
p4115
I1
sVqueued-massmessages
p4116
I0
sVpages
p4117
I25204
stp4118
a(S'simple'
p4119
g3447
(dp4120
Varticles
p4121
I25011
sVjobs
p4122
I0
sVusers
p4123
I18672
sVadmins
p4124
I4
sVedits
p4125
I430174
sVactiveusers
p4126
I27
sVimages
p4127
I4
sVqueued-massmessages
p4128
I0
sVpages
p4129
I32704
stp4130
a(S'cy'
p4131
g3447
(dp4132
Varticles
p4133
I24021
sVjobs
p4134
I0
sVusers
p4135
I3098
sVadmins
p4136
I1
sVedits
p4137
I157956
sVactiveusers
p4138
I7
sVimages
p4139
I7
sVqueued-massmessages
p4140
I0
sVpages
p4141
I27384
stp4142
a(S'zh-min-nan'
p4143
g3447
(dp4144
Varticles
p4145
I21577
sVjobs
p4146
I0
sVusers
p4147
I2646
sVadmins
p4148
I1
sVedits
p4149
I155008
sVactiveusers
p4150
I6
sVimages
p4151
I1
sVqueued-massmessages
p4152
I0
sVpages
p4153
I24247
stp4154
a(S'da'
p4155
g3447
(dp4156
Varticles
p4157
I37795
sVjobs
p4158
I0
sVusers
p4159
I7352
sVadmins
p4160
I3
sVedits
p4161
I281086
sVactiveusers
p4162
I25
sVimages
p4163
I0
sVqueued-massmessages
p4164
I0
sVpages
p4165
I49961
stp4166
a(S'scn'
p4167
g3447
(dp4168
Varticles
p4169
I18716
sVjobs
p4170
I0
sVusers
p4171
I3141
sVadmins
p4172
I3
sVedits
p4173
I150480
sVactiveusers
p4174
I9
sVimages
p4175
I22
sVqueued-massmessages
p4176
I0
sVpages
p4177
I28381
stp4178
a(S'sr'
p4179
g3447
(dp4180
Varticles
p4181
I189683
sVjobs
p4182
I0
sVusers
p4183
I5620
sVadmins
p4184
I5
sVedits
p4185
I432033
sVactiveusers
p4186
I24
sVimages
p4187
I2
sVqueued-massmessages
p4188
I0
sVpages
p4189
I195854
stp4190
a(S'ast'
p4191
g3447
(dp4192
Varticles
p4193
I17348
sVjobs
p4194
I0
sVusers
p4195
I2714
sVadmins
p4196
I1
sVedits
p4197
I180272
sVactiveusers
p4198
I8
sVimages
p4199
I1
sVqueued-massmessages
p4200
I0
sVpages
p4201
I22467
stp4202
a(S'af'
p4203
g3447
(dp4204
Varticles
p4205
I15887
sVjobs
p4206
I0
sVusers
p4207
I3907
sVadmins
p4208
I1
sVedits
p4209
I142646
sVactiveusers
p4210
I8
sVimages
p4211
I967
sVqueued-massmessages
p4212
I0
sVpages
p4213
I22048
stp4214
a(S'he'
p4215
g3447
(dp4216
Varticles
p4217
I17118
sVjobs
p4218
I0
sVusers
p4219
I18577
sVadmins
p4220
I3
sVedits
p4221
I270138
sVactiveusers
p4222
I48
sVimages
p4223
I257
sVqueued-massmessages
p4224
I0
sVpages
p4225
I35647
stp4226
a(S'sw'
p4227
g3447
(dp4228
Varticles
p4229
I13962
sVjobs
p4230
I0
sVusers
p4231
I2503
sVadmins
p4232
I1
sVedits
p4233
I126923
sVactiveusers
p4234
I9
sVimages
p4235
I0
sVqueued-massmessages
p4236
I0
sVpages
p4237
I17036
stp4238
a(S'or'
p4239
g3447
(dp4240
Varticles
p4241
I108585
sVjobs
p4242
I0
sVusers
p4243
I1563
sVadmins
p4244
I1
sVedits
p4245
I156199
sVactiveusers
p4246
I12
sVimages
p4247
I1
sVqueued-massmessages
p4248
I0
sVpages
p4249
I109786
stp4250
a(S'hi'
p4251
g3447
(dp4252
Varticles
p4253
I182729
sVjobs
p4254
I0
sVusers
p4255
I6777
sVadmins
p4256
I2
sVedits
p4257
I546095
sVactiveusers
p4258
I19
sVimages
p4259
I8
sVqueued-massmessages
p4260
I0
sVpages
p4261
I203989
stp4262
a(S'fy'
p4263
g3447
(dp4264
Varticles
p4265
I13434
sVjobs
p4266
I0
sVusers
p4267
I2405
sVadmins
p4268
I0
sVedits
p4269
I129702
sVactiveusers
p4270
I8
sVimages
p4271
I13
sVqueued-massmessages
p4272
I0
sVpages
p4273
I17857
stp4274
a(S'tl'
p4275
g3447
(dp4276
Varticles
p4277
I15328
sVjobs
p4278
I0
sVusers
p4279
I2926
sVadmins
p4280
I0
sVedits
p4281
I159622
sVactiveusers
p4282
I8
sVimages
p4283
I15
sVqueued-massmessages
p4284
I0
sVpages
p4285
I26417
stp4286
a(S'wa'
p4287
g3447
(dp4288
Varticles
p4289
I21695
sVjobs
p4290
I0
sVusers
p4291
I2218
sVadmins
p4292
I1
sVedits
p4293
I192428
sVactiveusers
p4294
I7
sVimages
p4295
I25
sVqueued-massmessages
p4296
I0
sVpages
p4297
I45721
stp4298
a(S'nn'
p4299
g3447
(dp4300
Varticles
p4301
I11860
sVjobs
p4302
I0
sVusers
p4303
I2264
sVadmins
p4304
I1
sVedits
p4305
I77308
sVactiveusers
p4306
I7
sVimages
p4307
I1
sVqueued-massmessages
p4308
I0
sVpages
p4309
I13596
stp4310
a(S'ur'
p4311
g3447
(dp4312
Varticles
p4313
I2570
sVjobs
p4314
I0
sVusers
p4315
I2663
sVadmins
p4316
I0
sVedits
p4317
I33311
sVactiveusers
p4318
I6
sVimages
p4319
I2
sVqueued-massmessages
p4320
I0
sVpages
p4321
I16424
stp4322
a(S'la'
p4323
g3447
(dp4324
Varticles
p4325
I17372
sVjobs
p4326
I0
sVusers
p4327
I8041
sVadmins
p4328
I1
sVedits
p4329
I176941
sVactiveusers
p4330
I13
sVimages
p4331
I71
sVqueued-massmessages
p4332
I0
sVpages
p4333
I28871
stp4334
a(S'sq'
p4335
g3447
(dp4336
Varticles
p4337
I7434
sVjobs
p4338
I0
sVusers
p4339
I3497
sVadmins
p4340
I1
sVedits
p4341
I134731
sVactiveusers
p4342
I7
sVimages
p4343
I0
sVqueued-massmessages
p4344
I0
sVpages
p4345
I42509
stp4346
a(S'ka'
p4347
g3447
(dp4348
Varticles
p4349
I7948
sVjobs
p4350
I0
sVusers
p4351
I3335
sVadmins
p4352
I1
sVedits
p4353
I90039
sVactiveusers
p4354
I8
sVimages
p4355
I12
sVqueued-massmessages
p4356
I0
sVpages
p4357
I11290
stp4358
a(S'sm'
p4359
g3447
(dp4360
Varticles
p4361
I4281
sVjobs
p4362
I0
sVusers
p4363
I1681
sVadmins
p4364
I0
sVedits
p4365
I64114
sVactiveusers
p4366
I9
sVimages
p4367
I0
sVqueued-massmessages
p4368
I0
sVpages
p4369
I8363
stp4370
a(S'sl'
p4371
g3447
(dp4372
Varticles
p4373
I7716
sVjobs
p4374
I0
sVusers
p4375
I4233
sVadmins
p4376
I1
sVedits
p4377
I124025
sVactiveusers
p4378
I9
sVimages
p4379
I0
sVqueued-massmessages
p4380
I0
sVpages
p4381
I16939
stp4382
a(S'nah'
p4383
g3447
(dp4384
Varticles
p4385
I7022
sVjobs
p4386
I0
sVusers
p4387
I1831
sVadmins
p4388
I1
sVedits
p4389
I56874
sVactiveusers
p4390
I6
sVimages
p4391
I1
sVqueued-massmessages
p4392
I0
sVpages
p4393
I8962
stp4394
a(S'tt'
p4395
g3447
(dp4396
Varticles
p4397
I1802
sVjobs
p4398
I0
sVusers
p4399
I1947
sVadmins
p4400
I0
sVedits
p4401
I74010
sVactiveusers
p4402
I3
sVimages
p4403
I1
sVqueued-massmessages
p4404
I0
sVpages
p4405
I9721
stp4406
a(S'lb'
p4407
g3447
(dp4408
Varticles
p4409
I6967
sVjobs
p4410
I0
sVusers
p4411
I2152
sVadmins
p4412
I0
sVedits
p4413
I86608
sVactiveusers
p4414
I6
sVimages
p4415
I178
sVqueued-massmessages
p4416
I0
sVpages
p4417
I11529
stp4418
a(S'lv'
p4419
g3447
(dp4420
Varticles
p4421
I9293
sVjobs
p4422
I0
sVusers
p4423
I2574
sVadmins
p4424
I1
sVedits
p4425
I88014
sVactiveusers
p4426
I11
sVimages
p4427
I1
sVqueued-massmessages
p4428
I0
sVpages
p4429
I12450
stp4430
a(S'bs'
p4431
g3447
(dp4432
Varticles
p4433
I6701
sVjobs
p4434
I0
sVusers
p4435
I2286
sVadmins
p4436
I5
sVedits
p4437
I62179
sVactiveusers
p4438
I6
sVimages
p4439
I0
sVqueued-massmessages
p4440
I0
sVpages
p4441
I9925
stp4442
a(S'sk'
p4443
g3447
(dp4444
Varticles
p4445
I19193
sVjobs
p4446
I0
sVusers
p4447
I3805
sVadmins
p4448
I3
sVedits
p4449
I119003
sVactiveusers
p4450
I10
sVimages
p4451
I2
sVqueued-massmessages
p4452
I0
sVpages
p4453
I22006
stp4454
a(S'tk'
p4455
g3447
(dp4456
Varticles
p4457
I4582
sVjobs
p4458
I0
sVusers
p4459
I1748
sVadmins
p4460
I0
sVedits
p4461
I27262
sVactiveusers
p4462
I4
sVimages
p4463
I0
sVqueued-massmessages
p4464
I0
sVpages
p4465
I5591
stp4466
a(S'nds'
p4467
g3447
(dp4468
Varticles
p4469
I7286
sVjobs
p4470
I0
sVusers
p4471
I2332
sVadmins
p4472
I3
sVedits
p4473
I125791
sVactiveusers
p4474
I7
sVimages
p4475
I16
sVqueued-massmessages
p4476
I0
sVpages
p4477
I33666
stp4478
a(S'hsb'
p4479
g3447
(dp4480
Varticles
p4481
I4132
sVjobs
p4482
I0
sVusers
p4483
I1809
sVadmins
p4484
I0
sVedits
p4485
I16162
sVactiveusers
p4486
I7
sVimages
p4487
I0
sVqueued-massmessages
p4488
I0
sVpages
p4489
I5363
stp4490
a(S'kk'
p4491
g3447
(dp4492
Varticles
p4493
I5736
sVjobs
p4494
I0
sVusers
p4495
I2356
sVadmins
p4496
I0
sVedits
p4497
I96683
sVactiveusers
p4498
I8
sVimages
p4499
I8
sVqueued-massmessages
p4500
I0
sVpages
p4501
I8195
stp4502
a(S'ky'
p4503
g3447
(dp4504
Varticles
p4505
I13222
sVjobs
p4506
I0
sVusers
p4507
I1937
sVadmins
p4508
I0
sVedits
p4509
I150438
sVactiveusers
p4510
I12
sVimages
p4511
I1
sVqueued-massmessages
p4512
I0
sVpages
p4513
I52279
stp4514
a(S'be'
p4515
g3447
(dp4516
Varticles
p4517
I3763
sVjobs
p4518
I0
sVusers
p4519
I2527
sVadmins
p4520
I1
sVedits
p4521
I48394
sVactiveusers
p4522
I10
sVimages
p4523
I0
sVqueued-massmessages
p4524
I0
sVpages
p4525
I7109
stp4526
a(S'mk'
p4527
g3447
(dp4528
Varticles
p4529
I4170
sVjobs
p4530
I0
sVusers
p4531
I2049
sVadmins
p4532
I1
sVedits
p4533
I43088
sVactiveusers
p4534
I10
sVimages
p4535
I0
sVqueued-massmessages
p4536
I0
sVpages
p4537
I7067
stp4538
a(S'km'
p4539
g3447
(dp4540
Varticles
p4541
I4472
sVjobs
p4542
I0
sVusers
p4543
I2269
sVadmins
p4544
I0
sVedits
p4545
I96447
sVactiveusers
p4546
I7
sVimages
p4547
I107
sVqueued-massmessages
p4548
I0
sVpages
p4549
I40935
stp4550
a(S'ms'
p4551
g3447
(dp4552
Varticles
p4553
I3413
sVjobs
p4554
I0
sVusers
p4555
I3326
sVadmins
p4556
I3
sVedits
p4557
I104536
sVactiveusers
p4558
I5
sVimages
p4559
I3
sVqueued-massmessages
p4560
I0
sVpages
p4561
I9562
stp4562
a(S'ga'
p4563
g3447
(dp4564
Varticles
p4565
I2645
sVjobs
p4566
I0
sVusers
p4567
I5595
sVadmins
p4568
I1
sVedits
p4569
I56818
sVactiveusers
p4570
I7
sVimages
p4571
I28
sVqueued-massmessages
p4572
I0
sVpages
p4573
I5612
stp4574
a(S'wo'
p4575
g3447
(dp4576
Varticles
p4577
I2310
sVjobs
p4578
I0
sVusers
p4579
I1627
sVadmins
p4580
I1
sVedits
p4581
I23784
sVactiveusers
p4582
I7
sVimages
p4583
I5
sVqueued-massmessages
p4584
I0
sVpages
p4585
I3749
stp4586
a(S'sa'
p4587
g3447
(dp4588
Varticles
p4589
I5978
sVjobs
p4590
I0
sVusers
p4591
I2766
sVadmins
p4592
I0
sVedits
p4593
I507585
sVactiveusers
p4594
I8
sVimages
p4595
I4
sVqueued-massmessages
p4596
I0
sVpages
p4597
I263371
stp4598
a(S'ang'
p4599
g3447
(dp4600
Varticles
p4601
I2148
sVjobs
p4602
I0
sVusers
p4603
I3902
sVadmins
p4604
I0
sVedits
p4605
I48543
sVactiveusers
p4606
I8
sVimages
p4607
I2
sVqueued-massmessages
p4608
I0
sVpages
p4609
I4374
stp4610
a(S'co'
p4611
g3447
(dp4612
Varticles
p4613
I9417
sVjobs
p4614
I0
sVusers
p4615
I2273
sVadmins
p4616
I1
sVedits
p4617
I68780
sVactiveusers
p4618
I4
sVimages
p4619
I17
sVqueued-massmessages
p4620
I0
sVpages
p4621
I12136
stp4622
a(S'tg'
p4623
g3447
(dp4624
Varticles
p4625
I28099
sVjobs
p4626
I0
sVusers
p4627
I1783
sVadmins
p4628
I1
sVedits
p4629
I112043
sVactiveusers
p4630
I11
sVimages
p4631
I0
sVqueued-massmessages
p4632
I0
sVpages
p4633
I33016
stp4634
a(S'mn'
p4635
g3447
(dp4636
Varticles
p4637
I9236
sVjobs
p4638
I0
sVusers
p4639
I2415
sVadmins
p4640
I0
sVedits
p4641
I243624
sVactiveusers
p4642
I65
sVimages
p4643
I113
sVqueued-massmessages
p4644
I0
sVpages
p4645
I46626
stp4646
a(S'gn'
p4647
g3447
(dp4648
Varticles
p4649
I1731
sVjobs
p4650
I0
sVusers
p4651
I1706
sVadmins
p4652
I0
sVedits
p4653
I13908
sVactiveusers
p4654
I5
sVimages
p4655
I1
sVqueued-massmessages
p4656
I0
sVpages
p4657
I2473
stp4658
a(S'mr'
p4659
g3447
(dp4660
Varticles
p4661
I1683
sVjobs
p4662
I0
sVusers
p4663
I2310
sVadmins
p4664
I2
sVedits
p4665
I15568
sVactiveusers
p4666
I11
sVimages
p4667
I4
sVqueued-massmessages
p4668
I0
sVpages
p4669
I4589
stp4670
a(S'ug'
p4671
g3447
(dp4672
Varticles
p4673
I1514
sVjobs
p4674
I0
sVusers
p4675
I1650
sVadmins
p4676
I0
sVedits
p4677
I31115
sVactiveusers
p4678
I6
sVimages
p4679
I0
sVqueued-massmessages
p4680
I0
sVpages
p4681
I3628
stp4682
a(S'csb'
p4683
g3447
(dp4684
Varticles
p4685
I1528
sVjobs
p4686
I0
sVusers
p4687
I1847
sVadmins
p4688
I0
sVedits
p4689
I31656
sVactiveusers
p4690
I6
sVimages
p4691
I0
sVqueued-massmessages
p4692
I0
sVpages
p4693
I3332
stp4694
a(S'st'
p4695
g3447
(dp4696
Varticles
p4697
I1341
sVjobs
p4698
I0
sVusers
p4699
I2286
sVadmins
p4700
I0
sVedits
p4701
I11200
sVactiveusers
p4702
I4
sVimages
p4703
I2
sVqueued-massmessages
p4704
I0
sVpages
p4705
I3039
stp4706
a(S'so'
p4707
g3447
(dp4708
Varticles
p4709
I1628
sVjobs
p4710
I0
sVusers
p4711
I1729
sVadmins
p4712
I0
sVedits
p4713
I20371
sVactiveusers
p4714
I5
sVimages
p4715
I0
sVqueued-massmessages
p4716
I0
sVpages
p4717
I3234
stp4718
a(S'ia'
p4719
g3447
(dp4720
Varticles
p4721
I1035
sVjobs
p4722
I0
sVusers
p4723
I2334
sVadmins
p4724
I0
sVedits
p4725
I35137
sVactiveusers
p4726
I7
sVimages
p4727
I5
sVqueued-massmessages
p4728
I0
sVpages
p4729
I8284
stp4730
a(S'sd'
p4731
g3447
(dp4732
Varticles
p4733
I1738
sVjobs
p4734
I0
sVusers
p4735
I1504
sVadmins
p4736
I1
sVedits
p4737
I26299
sVactiveusers
p4738
I5
sVimages
p4739
I43
sVqueued-massmessages
p4740
I0
sVpages
p4741
I5035
stp4742
a(S'si'
p4743
g3447
(dp4744
Varticles
p4745
I1139
sVjobs
p4746
I0
sVusers
p4747
I1788
sVadmins
p4748
I1
sVedits
p4749
I17462
sVactiveusers
p4750
I4
sVimages
p4751
I10
sVqueued-massmessages
p4752
I0
sVpages
p4753
I2783
stp4754
a(S'kl'
p4755
g3447
(dp4756
Varticles
p4757
I864
sVjobs
p4758
I0
sVusers
p4759
I1750
sVadmins
p4760
I0
sVedits
p4761
I23872
sVactiveusers
p4762
I7
sVimages
p4763
I2
sVqueued-massmessages
p4764
I0
sVpages
p4765
I2390
stp4766
a(S'vec'
p4767
g3447
(dp4768
Varticles
p4769
I2208
sVjobs
p4770
I0
sVusers
p4771
I1065
sVadmins
p4772
I1
sVedits
p4773
I21617
sVactiveusers
p4774
I4
sVimages
p4775
I1
sVqueued-massmessages
p4776
I0
sVpages
p4777
I3143
stp4778
a(S'an'
p4779
g3447
(dp4780
Varticles
p4781
I2563
sVjobs
p4782
I0
sVusers
p4783
I2106
sVadmins
p4784
I1
sVedits
p4785
I27864
sVactiveusers
p4786
I5
sVimages
p4787
I2
sVqueued-massmessages
p4788
I0
sVpages
p4789
I6330
stp4790
a(S'jbo'
p4791
g3447
(dp4792
Varticles
p4793
I726
sVjobs
p4794
I0
sVusers
p4795
I1612
sVadmins
p4796
I0
sVedits
p4797
I12975
sVactiveusers
p4798
I7
sVimages
p4799
I0
sVqueued-massmessages
p4800
I0
sVpages
p4801
I1582
stp4802
a(S'ln'
p4803
g3447
(dp4804
Varticles
p4805
I673
sVjobs
p4806
I0
sVusers
p4807
I1658
sVadmins
p4808
I0
sVedits
p4809
I11093
sVactiveusers
p4810
I4
sVimages
p4811
I0
sVqueued-massmessages
p4812
I0
sVpages
p4813
I1275
stp4814
a(S'fo'
p4815
g3447
(dp4816
Varticles
p4817
I802
sVjobs
p4818
I0
sVusers
p4819
I1836
sVadmins
p4820
I1
sVedits
p4821
I20059
sVactiveusers
p4822
I5
sVimages
p4823
I0
sVqueued-massmessages
p4824
I0
sVpages
p4825
I1777
stp4826
a(S'zu'
p4827
g3447
(dp4828
Varticles
p4829
I598
sVjobs
p4830
I0
sVusers
p4831
I1874
sVadmins
p4832
I0
sVedits
p4833
I13989
sVactiveusers
p4834
I5
sVimages
p4835
I0
sVqueued-massmessages
p4836
I0
sVpages
p4837
I1412
stp4838
a(S'gv'
p4839
g3447
(dp4840
Varticles
p4841
I455
sVjobs
p4842
I0
sVusers
p4843
I1553
sVadmins
p4844
I0
sVedits
p4845
I13620
sVactiveusers
p4846
I5
sVimages
p4847
I1
sVqueued-massmessages
p4848
I0
sVpages
p4849
I1344
stp4850
a(S'kw'
p4851
g3447
(dp4852
Varticles
p4853
I442
sVjobs
p4854
I0
sVusers
p4855
I1529
sVadmins
p4856
I0
sVedits
p4857
I12924
sVactiveusers
p4858
I4
sVimages
p4859
I0
sVqueued-massmessages
p4860
I0
sVpages
p4861
I1061
stp4862
a(S'gu'
p4863
g3447
(dp4864
Varticles
p4865
I457
sVjobs
p4866
I0
sVusers
p4867
I2139
sVadmins
p4868
I0
sVedits
p4869
I21994
sVactiveusers
p4870
I4
sVimages
p4871
I9
sVqueued-massmessages
p4872
I0
sVpages
p4873
I3942
stp4874
a(S'rw'
p4875
g3447
(dp4876
Varticles
p4877
I366
sVjobs
p4878
I0
sVusers
p4879
I1686
sVadmins
p4880
I0
sVedits
p4881
I12412
sVactiveusers
p4882
I3
sVimages
p4883
I0
sVqueued-massmessages
p4884
I0
sVpages
p4885
I1137
stp4886
a(S'bn'
p4887
g3447
(dp4888
Varticles
p4889
I3898
sVjobs
p4890
I0
sVusers
p4891
I4175
sVadmins
p4892
I1
sVedits
p4893
I30174
sVactiveusers
p4894
I10
sVimages
p4895
I3
sVqueued-massmessages
p4896
I0
sVpages
p4897
I7912
stp4898
a(S'qu'
p4899
g3447
(dp4900
Varticles
p4901
I301
sVjobs
p4902
I0
sVusers
p4903
I1498
sVadmins
p4904
I0
sVedits
p4905
I13386
sVactiveusers
p4906
I4
sVimages
p4907
I2
sVqueued-massmessages
p4908
I0
sVpages
p4909
I1499
stp4910
a(S'ss'
p4911
g3447
(dp4912
Varticles
p4913
I292
sVjobs
p4914
I0
sVusers
p4915
I1486
sVadmins
p4916
I2
sVedits
p4917
I9803
sVactiveusers
p4918
I4
sVimages
p4919
I0
sVqueued-massmessages
p4920
I0
sVpages
p4921
I1310
stp4922
a(S'ie'
p4923
g3447
(dp4924
Varticles
p4925
I1004
sVjobs
p4926
I0
sVusers
p4927
I1659
sVadmins
p4928
I0
sVedits
p4929
I9916
sVactiveusers
p4930
I4
sVimages
p4931
I0
sVqueued-massmessages
p4932
I0
sVpages
p4933
I3089
stp4934
a(S'mt'
p4935
g3447
(dp4936
Varticles
p4937
I1343
sVjobs
p4938
I0
sVusers
p4939
I1564
sVadmins
p4940
I0
sVedits
p4941
I18102
sVactiveusers
p4942
I4
sVimages
p4943
I2
sVqueued-massmessages
p4944
I0
sVpages
p4945
I2661
stp4946
a(S'om'
p4947
g3447
(dp4948
Varticles
p4949
I335
sVjobs
p4950
I0
sVusers
p4951
I1523
sVadmins
p4952
I0
sVedits
p4953
I12154
sVactiveusers
p4954
I3
sVimages
p4955
I0
sVqueued-massmessages
p4956
I0
sVpages
p4957
I946
stp4958
a(S'pa'
p4959
g3447
(dp4960
Varticles
p4961
I3447
sVjobs
p4962
I0
sVusers
p4963
I1656
sVadmins
p4964
I2
sVedits
p4965
I18981
sVactiveusers
p4966
I6
sVimages
p4967
I0
sVqueued-massmessages
p4968
I0
sVpages
p4969
I4424
stp4970
a(S'roa-rup'
p4971
g3447
(dp4972
Varticles
p4973
I1271
sVjobs
p4974
I0
sVusers
p4975
I1635
sVadmins
p4976
I0
sVedits
p4977
I15786
sVactiveusers
p4978
I4
sVimages
p4979
I0
sVqueued-massmessages
p4980
I0
sVpages
p4981
I1963
stp4982
a(S'iu'
p4983
g3447
(dp4984
Varticles
p4985
I258
sVjobs
p4986
I0
sVusers
p4987
I1688
sVadmins
p4988
I0
sVedits
p4989
I10703
sVactiveusers
p4990
I4
sVimages
p4991
I0
sVqueued-massmessages
p4992
I0
sVpages
p4993
I968
stp4994
a(S'na'
p4995
g3447
(dp4996
Varticles
p4997
I556
sVjobs
p4998
I0
sVusers
p4999
I1637
sVadmins
p5000
I0
sVedits
p5001
I13304
sVactiveusers
p5002
I6
sVimages
p5003
I0
sVqueued-massmessages
p5004
I0
sVpages
p5005
I1535
stp5006
a(S'su'
p5007
g3447
(dp5008
Varticles
p5009
I264
sVjobs
p5010
I0
sVusers
p5011
I1500
sVadmins
p5012
I0
sVedits
p5013
I10834
sVactiveusers
p5014
I4
sVimages
p5015
I1
sVqueued-massmessages
p5016
I0
sVpages
p5017
I1319
stp5018
a(S'am'
p5019
g3447
(dp5020
Varticles
p5021
I214
sVjobs
p5022
I0
sVusers
p5023
I2172
sVadmins
p5024
I0
sVedits
p5025
I13698
sVactiveusers
p5026
I7
sVimages
p5027
I0
sVqueued-massmessages
p5028
I0
sVpages
p5029
I2428
stp5030
a(S'mi'
p5031
g3447
(dp5032
Varticles
p5033
I866
sVjobs
p5034
I0
sVusers
p5035
I1777
sVadmins
p5036
I0
sVedits
p5037
I14805
sVactiveusers
p5038
I8
sVimages
p5039
I0
sVqueued-massmessages
p5040
I0
sVpages
p5041
I2038
stp5042
a(S'za'
p5043
g3447
(dp5044
Varticles
p5045
I179
sVjobs
p5046
I0
sVusers
p5047
I816
sVadmins
p5048
I0
sVedits
p5049
I12992
sVactiveusers
p5050
I0
sVimages
p5051
I0
sVqueued-massmessages
p5052
I0
sVpages
p5053
I562
stp5054
a(S'ne'
p5055
g3447
(dp5056
Varticles
p5057
I352
sVjobs
p5058
I0
sVusers
p5059
I2142
sVadmins
p5060
I0
sVedits
p5061
I43257
sVactiveusers
p5062
I7
sVimages
p5063
I26
sVqueued-massmessages
p5064
I0
sVpages
p5065
I6982
stp5066
a(S'gd'
p5067
g3447
(dp5068
Varticles
p5069
I1449
sVjobs
p5070
I0
sVusers
p5071
I1824
sVadmins
p5072
I0
sVedits
p5073
I27754
sVactiveusers
p5074
I5
sVimages
p5075
I0
sVqueued-massmessages
p5076
I0
sVpages
p5077
I4148
stp5078
a(S'tpi'
p5079
g3447
(dp5080
Varticles
p5081
I151
sVjobs
p5082
I0
sVusers
p5083
I1617
sVadmins
p5084
I0
sVedits
p5085
I10502
sVactiveusers
p5086
I4
sVimages
p5087
I0
sVqueued-massmessages
p5088
I0
sVpages
p5089
I864
stp5090
a(S'ik'
p5091
g3447
(dp5092
Varticles
p5093
I143
sVjobs
p5094
I0
sVusers
p5095
I1034
sVadmins
p5096
I0
sVedits
p5097
I7174
sVactiveusers
p5098
I0
sVimages
p5099
I0
sVqueued-massmessages
p5100
I0
sVpages
p5101
I616
stp5102
a(S'yi'
p5103
g3447
(dp5104
Varticles
p5105
I124
sVjobs
p5106
I0
sVusers
p5107
I9147
sVadmins
p5108
I2
sVedits
p5109
I16244
sVactiveusers
p5110
I9
sVimages
p5111
I20
sVqueued-massmessages
p5112
I0
sVpages
p5113
I2540
stp5114
a(S'ti'
p5115
g3447
(dp5116
Varticles
p5117
I115
sVjobs
p5118
I0
sVusers
p5119
I1478
sVadmins
p5120
I0
sVedits
p5121
I9242
sVactiveusers
p5122
I3
sVimages
p5123
I0
sVqueued-massmessages
p5124
I0
sVpages
p5125
I1120
stp5126
a(S'sg'
p5127
g3447
(dp5128
Varticles
p5129
I111
sVjobs
p5130
I0
sVusers
p5131
I1434
sVadmins
p5132
I0
sVedits
p5133
I8496
sVactiveusers
p5134
I3
sVimages
p5135
I1
sVqueued-massmessages
p5136
I0
sVpages
p5137
I748
stp5138
a(S'tn'
p5139
g3447
(dp5140
Varticles
p5141
I106
sVjobs
p5142
I0
sVusers
p5143
I1394
sVadmins
p5144
I0
sVedits
p5145
I8173
sVactiveusers
p5146
I3
sVimages
p5147
I0
sVqueued-massmessages
p5148
I0
sVpages
p5149
I724
stp5150
a(S'dv'
p5151
g3447
(dp5152
Varticles
p5153
I179
sVjobs
p5154
I0
sVusers
p5155
I1635
sVadmins
p5156
I0
sVedits
p5157
I8901
sVactiveusers
p5158
I5
sVimages
p5159
I2
sVqueued-massmessages
p5160
I0
sVpages
p5161
I1168
stp5162
a(S'ts'
p5163
g3447
(dp5164
Varticles
p5165
I359
sVjobs
p5166
I0
sVusers
p5167
I1457
sVadmins
p5168
I0
sVedits
p5169
I8324
sVactiveusers
p5170
I4
sVimages
p5171
I0
sVqueued-massmessages
p5172
I0
sVpages
p5173
I908
stp5174
a(S'ha'
p5175
g3447
(dp5176
Varticles
p5177
I260
sVjobs
p5178
I0
sVusers
p5179
I1503
sVadmins
p5180
I0
sVedits
p5181
I7973
sVactiveusers
p5182
I5
sVimages
p5183
I0
sVqueued-massmessages
p5184
I0
sVpages
p5185
I834
stp5186
a(S'ks'
p5187
g3447
(dp5188
Varticles
p5189
I56
sVjobs
p5190
I0
sVusers
p5191
I1484
sVadmins
p5192
I1
sVedits
p5193
I7445
sVactiveusers
p5194
I5
sVimages
p5195
I0
sVqueued-massmessages
p5196
I0
sVpages
p5197
I724
stp5198
a(S'ay'
p5199
g3447
(dp5200
Varticles
p5201
I886
sVjobs
p5202
I0
sVusers
p5203
I1819
sVadmins
p5204
I0
sVedits
p5205
I15944
sVactiveusers
p5206
I3
sVimages
p5207
I0
sVqueued-massmessages
p5208
I0
sVpages
p5209
I1713
stp5210
a(S'as'
p5211
g3447
(dp5212
Varticles
p5213
I16
sVjobs
p5214
I0
sVusers
p5215
I484
sVadmins
p5216
I0
sVedits
p5217
I4991
sVactiveusers
p5218
I0
sVimages
p5219
I0
sVqueued-massmessages
p5220
I0
sVpages
p5221
I257
stp5222
a(S'mo'
p5223
g3447
(dp5224
Varticles
p5225
I5
sVjobs
p5226
I0
sVusers
p5227
I400
sVadmins
p5228
I0
sVedits
p5229
I4984
sVactiveusers
p5230
I0
sVimages
p5231
I0
sVqueued-massmessages
p5232
I0
sVpages
p5233
I230
stp5234
a(S'aa'
p5235
g3447
(dp5236
Varticles
p5237
I0
sVjobs
p5238
I0
sVusers
p5239
I486
sVadmins
p5240
I0
sVedits
p5241
I6796
sVactiveusers
p5242
I0
sVimages
p5243
I0
sVqueued-massmessages
p5244
I0
sVpages
p5245
I100
stp5246
a(S'pi'
p5247
g3447
(dp5248
Varticles
p5249
I1
sVjobs
p5250
I0
sVusers
p5251
I384
sVadmins
p5252
I0
sVedits
p5253
I3343
sVactiveusers
p5254
I0
sVimages
p5255
I0
sVqueued-massmessages
p5256
I0
sVpages
p5257
I53
stp5258
a(S'als'
p5259
g3447
(dp5260
Varticles
p5261
I0
sVjobs
p5262
I0
sVusers
p5263
I667
sVadmins
p5264
I0
sVedits
p5265
I15310
sVactiveusers
p5266
I0
sVimages
p5267
I0
sVqueued-massmessages
p5268
I0
sVpages
p5269
I1226
stp5270
a(S'ab'
p5271
g3447
(dp5272
Varticles
p5273
I0
sVjobs
p5274
I0
sVusers
p5275
I512
sVadmins
p5276
I0
sVedits
p5277
I8986
sVactiveusers
p5278
I0
sVimages
p5279
I0
sVqueued-massmessages
p5280
I0
sVpages
p5281
I248
stp5282
a(S'dz'
p5283
g3447
(dp5284
Varticles
p5285
I0
sVjobs
p5286
I0
sVusers
p5287
I403
sVadmins
p5288
I0
sVedits
p5289
I4896
sVactiveusers
p5290
I0
sVimages
p5291
I0
sVqueued-massmessages
p5292
I0
sVpages
p5293
I229
stp5294
a(S'bh'
p5295
g3447
(dp5296
Varticles
p5297
I0
sVjobs
p5298
I0
sVusers
p5299
I442
sVadmins
p5300
I0
sVedits
p5301
I4868
sVactiveusers
p5302
I0
sVimages
p5303
I0
sVqueued-massmessages
p5304
I0
sVpages
p5305
I229
stp5306
a(S'sn'
p5307
g3447
(dp5308
Varticles
p5309
I0
sVjobs
p5310
I0
sVusers
p5311
I333
sVadmins
p5312
I0
sVedits
p5313
I4964
sVactiveusers
p5314
I0
sVimages
p5315
I0
sVqueued-massmessages
p5316
I0
sVpages
p5317
I233
stp5318
a(S'tw'
p5319
g3447
(dp5320
Varticles
p5321
I0
sVjobs
p5322
I0
sVusers
p5323
I423
sVadmins
p5324
I0
sVedits
p5325
I4850
sVactiveusers
p5326
I0
sVimages
p5327
I0
sVqueued-massmessages
p5328
I0
sVpages
p5329
I224
stp5330
a(S'to'
p5331
g3447
(dp5332
Varticles
p5333
I0
sVjobs
p5334
I0
sVusers
p5335
I374
sVadmins
p5336
I0
sVedits
p5337
I4894
sVactiveusers
p5338
I0
sVimages
p5339
I0
sVqueued-massmessages
p5340
I0
sVpages
p5341
I216
stp5342
a(S'bi'
p5343
g3447
(dp5344
Varticles
p5345
I0
sVjobs
p5346
I0
sVusers
p5347
I412
sVadmins
p5348
I0
sVedits
p5349
I4807
sVactiveusers
p5350
I0
sVimages
p5351
I0
sVqueued-massmessages
p5352
I0
sVpages
p5353
I215
stp5354
a(S'yo'
p5355
g3447
(dp5356
Varticles
p5357
I0
sVjobs
p5358
I0
sVusers
p5359
I364
sVadmins
p5360
I0
sVedits
p5361
I4970
sVactiveusers
p5362
I0
sVimages
p5363
I0
sVqueued-massmessages
p5364
I0
sVpages
p5365
I210
stp5366
a(S'bo'
p5367
g3447
(dp5368
Varticles
p5369
I0
sVjobs
p5370
I0
sVusers
p5371
I395
sVadmins
p5372
I0
sVedits
p5373
I4779
sVactiveusers
p5374
I0
sVimages
p5375
I0
sVqueued-massmessages
p5376
I0
sVpages
p5377
I168
stp5378
a(S'rm'
p5379
g3447
(dp5380
Varticles
p5381
I0
sVjobs
p5382
I0
sVusers
p5383
I387
sVadmins
p5384
I0
sVedits
p5385
I4812
sVactiveusers
p5386
I0
sVimages
p5387
I0
sVqueued-massmessages
p5388
I0
sVpages
p5389
I121
stp5390
a(S'xh'
p5391
g3447
(dp5392
Varticles
p5393
I0
sVjobs
p5394
I0
sVusers
p5395
I407
sVadmins
p5396
I0
sVedits
p5397
I5267
sVactiveusers
p5398
I0
sVimages
p5399
I0
sVqueued-massmessages
p5400
I0
sVpages
p5401
I103
stp5402
a(S'sc'
p5403
g3447
(dp5404
Varticles
p5405
I0
sVjobs
p5406
I0
sVusers
p5407
I416
sVadmins
p5408
I0
sVedits
p5409
I6038
sVactiveusers
p5410
I0
sVimages
p5411
I0
sVqueued-massmessages
p5412
I0
sVpages
p5413
I94
stp5414
a(S'ak'
p5415
g3447
(dp5416
Varticles
p5417
I0
sVjobs
p5418
I0
sVusers
p5419
I608
sVadmins
p5420
I0
sVedits
p5421
I4380
sVactiveusers
p5422
I0
sVimages
p5423
I0
sVqueued-massmessages
p5424
I0
sVpages
p5425
I79
stp5426
a(S'rn'
p5427
g3447
(dp5428
Varticles
p5429
I0
sVjobs
p5430
I0
sVusers
p5431
I423
sVadmins
p5432
I0
sVedits
p5433
I4728
sVactiveusers
p5434
I0
sVimages
p5435
I0
sVqueued-massmessages
p5436
I0
sVpages
p5437
I62
stp5438
a(S'av'
p5439
g3447
(dp5440
Varticles
p5441
I0
sVjobs
p5442
I0
sVusers
p5443
I447
sVadmins
p5444
I0
sVedits
p5445
I4869
sVactiveusers
p5446
I0
sVimages
p5447
I0
sVqueued-massmessages
p5448
I0
sVpages
p5449
I72
stp5450
a(S'bm'
p5451
g3447
(dp5452
Varticles
p5453
I0
sVjobs
p5454
I0
sVusers
p5455
I386
sVadmins
p5456
I0
sVedits
p5457
I4133
sVactiveusers
p5458
I0
sVimages
p5459
I0
sVqueued-massmessages
p5460
I0
sVpages
p5461
I85
stp5462
a(S'ch'
p5463
g3447
(dp5464
Varticles
p5465
I0
sVjobs
p5466
I0
sVusers
p5467
I431
sVadmins
p5468
I0
sVedits
p5469
I3486
sVactiveusers
p5470
I0
sVimages
p5471
I0
sVqueued-massmessages
p5472
I0
sVpages
p5473
I67
stp5474
a(S'cr'
p5475
g3447
(dp5476
Varticles
p5477
I0
sVjobs
p5478
I0
sVusers
p5479
I406
sVadmins
p5480
I0
sVedits
p5481
I3341
sVactiveusers
p5482
I0
sVimages
p5483
I0
sVqueued-massmessages
p5484
I0
sVpages
p5485
I73
stp5486
a(S'mh'
p5487
g3447
(dp5488
Varticles
p5489
I0
sVjobs
p5490
I0
sVusers
p5491
I349
sVadmins
p5492
I0
sVedits
p5493
I3383
sVactiveusers
p5494
I0
sVimages
p5495
I0
sVqueued-massmessages
p5496
I0
sVpages
p5497
I54
stp5498
a.